ARM GAS  C:\Users\JASON\AppData\Local\Temp\ccwG0VHB.s 			page 1


   1              		.syntax unified
   2              		.cpu cortex-m3
   3              		.fpu softvfp
   4              		.eabi_attribute 20, 1
   5              		.eabi_attribute 21, 1
   6              		.eabi_attribute 23, 3
   7              		.eabi_attribute 24, 1
   8              		.eabi_attribute 25, 1
   9              		.eabi_attribute 26, 1
  10              		.eabi_attribute 30, 1
  11              		.eabi_attribute 34, 1
  12              		.eabi_attribute 18, 4
  13              		.thumb
  14              		.syntax unified
  15              		.file	"button.c"
  16              		.text
  17              	.Ltext0:
  18              		.cfi_sections	.debug_frame
  19              		.section	.text.BUTTON_Init,"ax",%progbits
  20              		.align	2
  21              		.global	BUTTON_Init
  22              		.thumb
  23              		.thumb_func
  24              		.type	BUTTON_Init, %function
  25              	BUTTON_Init:
  26              	.LFB110:
  27              		.file 1 "source\\bsw\\LabBoard\\button.c"
   1:source\bsw\LabBoard/button.c **** /**
   2:source\bsw\LabBoard/button.c **** * \file button.c
   3:source\bsw\LabBoard/button.c **** * \author P. Fromm
   4:source\bsw\LabBoard/button.c **** * \date 29.7.17
   5:source\bsw\LabBoard/button.c **** *
   6:source\bsw\LabBoard/button.c **** * \brief Simple button driver
   7:source\bsw\LabBoard/button.c **** *
   8:source\bsw\LabBoard/button.c **** * \copyright Copyright ©2016
   9:source\bsw\LabBoard/button.c **** * Department of electrical engineering and information technology, Hochschule Darmstadt - Universit
  10:source\bsw\LabBoard/button.c **** * Permission to use, copy, modify, and distribute this software and its documentation for education
  11:source\bsw\LabBoard/button.c **** * (unless permitted by h_da) and official h_da projects, is hereby granted for enrolled students of
  12:source\bsw\LabBoard/button.c **** * this paragraph and the following paragraph appear in all copies, modifications, and distributions
  13:source\bsw\LabBoard/button.c **** * Contact Prof.Dr.-Ing. Peter Fromm, peter.fromm@h-da.de, Birkenweg 8 64295 Darmstadt - GERMANY for
  14:source\bsw\LabBoard/button.c **** *
  15:source\bsw\LabBoard/button.c **** * \warning This software is a PROTOTYPE version and is not designed or intended for use in producti
  16:source\bsw\LabBoard/button.c **** * The user represents and warrants that it will NOT use or redistribute the Software for such purpo
  17:source\bsw\LabBoard/button.c **** * This prototype is for research purposes only. This software is provided "AS IS," without a warran
  18:source\bsw\LabBoard/button.c **** */
  19:source\bsw\LabBoard/button.c **** 
  20:source\bsw\LabBoard/button.c **** /*****************************************************************************/
  21:source\bsw\LabBoard/button.c **** /* Include files                                                             */
  22:source\bsw\LabBoard/button.c **** /*****************************************************************************/
  23:source\bsw\LabBoard/button.c **** #include "project.h"
  24:source\bsw\LabBoard/button.c **** #include "button.h"
  25:source\bsw\LabBoard/button.c **** 
  26:source\bsw\LabBoard/button.c **** #include "button_1.h"
  27:source\bsw\LabBoard/button.c **** #include "button_2.h"
  28:source\bsw\LabBoard/button.c **** #include "button_3.h"
  29:source\bsw\LabBoard/button.c **** #include "button_4.h"
  30:source\bsw\LabBoard/button.c **** 
ARM GAS  C:\Users\JASON\AppData\Local\Temp\ccwG0VHB.s 			page 2


  31:source\bsw\LabBoard/button.c **** 
  32:source\bsw\LabBoard/button.c **** /*****************************************************************************/
  33:source\bsw\LabBoard/button.c **** /* Local pre-processor symbols/macros ('#define')                            */
  34:source\bsw\LabBoard/button.c **** /*****************************************************************************/
  35:source\bsw\LabBoard/button.c **** 
  36:source\bsw\LabBoard/button.c **** /*****************************************************************************/
  37:source\bsw\LabBoard/button.c **** /* Global variable definitions (declared in header file with 'extern')       */
  38:source\bsw\LabBoard/button.c **** /*****************************************************************************/
  39:source\bsw\LabBoard/button.c **** 
  40:source\bsw\LabBoard/button.c **** /*****************************************************************************/
  41:source\bsw\LabBoard/button.c **** /* Local type definitions ('typedef')                                        */
  42:source\bsw\LabBoard/button.c **** /*****************************************************************************/
  43:source\bsw\LabBoard/button.c **** 
  44:source\bsw\LabBoard/button.c **** /*****************************************************************************/
  45:source\bsw\LabBoard/button.c **** /* Local variable definitions ('static')                                     */
  46:source\bsw\LabBoard/button.c **** /*****************************************************************************/
  47:source\bsw\LabBoard/button.c **** 
  48:source\bsw\LabBoard/button.c **** 
  49:source\bsw\LabBoard/button.c **** 
  50:source\bsw\LabBoard/button.c **** /*****************************************************************************/
  51:source\bsw\LabBoard/button.c **** /* Local function prototypes ('static')                                      */
  52:source\bsw\LabBoard/button.c **** /*****************************************************************************/
  53:source\bsw\LabBoard/button.c **** 
  54:source\bsw\LabBoard/button.c **** 
  55:source\bsw\LabBoard/button.c **** /*****************************************************************************/
  56:source\bsw\LabBoard/button.c **** /* Function implementation - global ('extern') and local ('static')          */
  57:source\bsw\LabBoard/button.c **** /*****************************************************************************/
  58:source\bsw\LabBoard/button.c **** 
  59:source\bsw\LabBoard/button.c **** /**
  60:source\bsw\LabBoard/button.c ****  * Initialize Button
  61:source\bsw\LabBoard/button.c ****  * @return RC_SUCCESS if ok
  62:source\bsw\LabBoard/button.c ****  */
  63:source\bsw\LabBoard/button.c **** RC_t BUTTON_Init(cyisraddress address)
  64:source\bsw\LabBoard/button.c **** {
  28              		.loc 1 64 0
  29              		.cfi_startproc
  30              		@ args = 0, pretend = 0, frame = 0
  31              		@ frame_needed = 0, uses_anonymous_args = 0
  32              	.LVL0:
  65:source\bsw\LabBoard/button.c ****  
  66:source\bsw\LabBoard/button.c ****     if (address != 0)
  33              		.loc 1 66 0
  34 0000 20B1     		cbz	r0, .L4
  64:source\bsw\LabBoard/button.c ****  
  35              		.loc 1 64 0
  36 0002 08B5     		push	{r3, lr}
  37              		.cfi_def_cfa_offset 8
  38              		.cfi_offset 3, -8
  39              		.cfi_offset 14, -4
  40              	.LBB2:
  67:source\bsw\LabBoard/button.c ****     {
  68:source\bsw\LabBoard/button.c ****         isr_Button_StartEx(address);
  41              		.loc 1 68 0
  42 0004 FFF7FEFF 		bl	isr_Button_StartEx
  43              	.LVL1:
  44              	.LBE2:
  69:source\bsw\LabBoard/button.c ****     }
ARM GAS  C:\Users\JASON\AppData\Local\Temp\ccwG0VHB.s 			page 3


  70:source\bsw\LabBoard/button.c ****     
  71:source\bsw\LabBoard/button.c ****     return RC_SUCCESS;
  72:source\bsw\LabBoard/button.c **** }
  45              		.loc 1 72 0
  46 0008 0020     		movs	r0, #0
  47 000a 08BD     		pop	{r3, pc}
  48              	.LVL2:
  49              	.L4:
  50              		.cfi_def_cfa_offset 0
  51              		.cfi_restore 3
  52              		.cfi_restore 14
  53 000c 0020     		movs	r0, #0
  54              	.LVL3:
  55 000e 7047     		bx	lr
  56              		.cfi_endproc
  57              	.LFE110:
  58              		.size	BUTTON_Init, .-BUTTON_Init
  59              		.section	.text.BUTTON_IsPressed,"ax",%progbits
  60              		.align	2
  61              		.global	BUTTON_IsPressed
  62              		.thumb
  63              		.thumb_func
  64              		.type	BUTTON_IsPressed, %function
  65              	BUTTON_IsPressed:
  66              	.LFB111:
  73:source\bsw\LabBoard/button.c **** 
  74:source\bsw\LabBoard/button.c **** /**
  75:source\bsw\LabBoard/button.c ****  * Initialize Button
  76:source\bsw\LabBoard/button.c ****  * @param BUTTON_id_t button - check if the corresponding button is pressed
  77:source\bsw\LabBoard/button.c ****  * @return TRUE if button is pressed
  78:source\bsw\LabBoard/button.c ****  */
  79:source\bsw\LabBoard/button.c **** boolean_t BUTTON_IsPressed(BUTTON_id_t button)
  80:source\bsw\LabBoard/button.c **** {
  67              		.loc 1 80 0
  68              		.cfi_startproc
  69              		@ args = 0, pretend = 0, frame = 0
  70              		@ frame_needed = 0, uses_anonymous_args = 0
  71              	.LVL4:
  72 0000 08B5     		push	{r3, lr}
  73              		.cfi_def_cfa_offset 8
  74              		.cfi_offset 3, -8
  75              		.cfi_offset 14, -4
  76              	.LVL5:
  81:source\bsw\LabBoard/button.c ****     boolean_t result = FALSE;
  82:source\bsw\LabBoard/button.c ****     
  83:source\bsw\LabBoard/button.c ****     switch (button)
  77              		.loc 1 83 0
  78 0002 0328     		cmp	r0, #3
  79 0004 1BD8     		bhi	.L12
  80 0006 DFE800F0 		tbb	[pc, r0]
  81              	.L8:
  82 000a 02       		.byte	(.L7-.L8)/2
  83 000b 08       		.byte	(.L9-.L8)/2
  84 000c 0E       		.byte	(.L10-.L8)/2
  85 000d 14       		.byte	(.L11-.L8)/2
  86              		.p2align 1
  87              	.L7:
ARM GAS  C:\Users\JASON\AppData\Local\Temp\ccwG0VHB.s 			page 4


  88              	.LBB3:
  84:source\bsw\LabBoard/button.c ****     {
  85:source\bsw\LabBoard/button.c ****         case BUTTON_1 : if (BUTTON_1_Read() == 1) result = TRUE; break;
  89              		.loc 1 85 0
  90 000e FFF7FEFF 		bl	BUTTON_1_Read
  91              	.LVL6:
  92 0012 0128     		cmp	r0, #1
  93 0014 15D0     		beq	.L13
  94              	.LBE3:
  81:source\bsw\LabBoard/button.c ****     boolean_t result = FALSE;
  95              		.loc 1 81 0
  96 0016 0020     		movs	r0, #0
  97 0018 08BD     		pop	{r3, pc}
  98              	.LVL7:
  99              	.L9:
 100              	.LBB4:
  86:source\bsw\LabBoard/button.c ****         case BUTTON_2 : if (BUTTON_2_Read() == 1) result = TRUE; break;
 101              		.loc 1 86 0
 102 001a FFF7FEFF 		bl	BUTTON_2_Read
 103              	.LVL8:
 104 001e 0128     		cmp	r0, #1
 105 0020 11D0     		beq	.L14
 106              	.LBE4:
  81:source\bsw\LabBoard/button.c ****     boolean_t result = FALSE;
 107              		.loc 1 81 0
 108 0022 0020     		movs	r0, #0
 109 0024 08BD     		pop	{r3, pc}
 110              	.LVL9:
 111              	.L10:
 112              	.LBB5:
  87:source\bsw\LabBoard/button.c ****         case BUTTON_3 : if (BUTTON_3_Read() == 1) result = TRUE; break;
 113              		.loc 1 87 0
 114 0026 FFF7FEFF 		bl	BUTTON_3_Read
 115              	.LVL10:
 116 002a 0128     		cmp	r0, #1
 117 002c 0DD0     		beq	.L15
 118              	.LBE5:
  81:source\bsw\LabBoard/button.c ****     
 119              		.loc 1 81 0
 120 002e 0020     		movs	r0, #0
 121 0030 08BD     		pop	{r3, pc}
 122              	.LVL11:
 123              	.L11:
 124              	.LBB6:
  88:source\bsw\LabBoard/button.c ****         case BUTTON_4 : if (BUTTON_4_Read() == 1) result = TRUE; break;
 125              		.loc 1 88 0
 126 0032 FFF7FEFF 		bl	BUTTON_4_Read
 127              	.LVL12:
 128 0036 0128     		cmp	r0, #1
 129 0038 09D0     		beq	.L16
 130              	.LBE6:
  81:source\bsw\LabBoard/button.c ****     
 131              		.loc 1 81 0
 132 003a 0020     		movs	r0, #0
 133 003c 08BD     		pop	{r3, pc}
 134              	.LVL13:
 135              	.L12:
ARM GAS  C:\Users\JASON\AppData\Local\Temp\ccwG0VHB.s 			page 5


 136 003e 0020     		movs	r0, #0
 137              	.LVL14:
 138 0040 08BD     		pop	{r3, pc}
 139              	.L13:
 140              	.LBB7:
  85:source\bsw\LabBoard/button.c ****         case BUTTON_2 : if (BUTTON_2_Read() == 1) result = TRUE; break;
 141              		.loc 1 85 0
 142 0042 0120     		movs	r0, #1
 143 0044 08BD     		pop	{r3, pc}
 144              	.L14:
 145              	.LBE7:
 146              	.LBB8:
  86:source\bsw\LabBoard/button.c ****         case BUTTON_3 : if (BUTTON_3_Read() == 1) result = TRUE; break;
 147              		.loc 1 86 0
 148 0046 0120     		movs	r0, #1
 149 0048 08BD     		pop	{r3, pc}
 150              	.L15:
 151              	.LBE8:
 152              	.LBB9:
  87:source\bsw\LabBoard/button.c ****         case BUTTON_4 : if (BUTTON_4_Read() == 1) result = TRUE; break;
 153              		.loc 1 87 0
 154 004a 0120     		movs	r0, #1
 155 004c 08BD     		pop	{r3, pc}
 156              	.L16:
 157              	.LBE9:
 158              	.LBB10:
 159              		.loc 1 88 0
 160 004e 0120     		movs	r0, #1
 161              	.LVL15:
 162              	.LBE10:
  89:source\bsw\LabBoard/button.c ****     }
  90:source\bsw\LabBoard/button.c ****     
  91:source\bsw\LabBoard/button.c ****     return result;
  92:source\bsw\LabBoard/button.c **** }
 163              		.loc 1 92 0
 164 0050 08BD     		pop	{r3, pc}
 165              		.cfi_endproc
 166              	.LFE111:
 167              		.size	BUTTON_IsPressed, .-BUTTON_IsPressed
 168 0052 00BF     		.text
 169              	.Letext0:
 170              		.file 2 "c:\\program files (x86)\\cypress\\psoc creator\\4.4\\psoc creator\\import\\gnu\\arm\\5.4.
 171              		.file 3 "c:\\program files (x86)\\cypress\\psoc creator\\4.4\\psoc creator\\import\\gnu\\arm\\5.4.
 172              		.file 4 "Generated_Source\\PSoC5/cytypes.h"
 173              		.file 5 "Generated_Source\\PSoC5/ErikaOS_common_ee_types.inc"
 174              		.file 6 "Generated_Source\\PSoC5/ErikaOS_cortex_mx_ee_cpu.inc"
 175              		.file 7 ".\\source\\bsw/global.h"
 176              		.file 8 "source\\bsw\\LabBoard\\button.h"
 177              		.file 9 "Generated_Source\\PSoC5/ErikaOS_ee_oo_intfunc.inc"
 178              		.file 10 "Generated_Source\\PSoC5/ErikaOS_cortex_mx_ee_context.inc"
 179              		.file 11 "Generated_Source\\PSoC5/ErikaOS_common_ee_primitives.inc"
 180              		.file 12 "Generated_Source\\PSoC5/core_cm3.h"