ARM GAS  C:\Users\JASON\AppData\Local\Temp\cczCnOwf.s 			page 1


   1              		.syntax unified
   2              		.cpu cortex-m3
   3              		.fpu softvfp
   4              		.eabi_attribute 20, 1
   5              		.eabi_attribute 21, 1
   6              		.eabi_attribute 23, 3
   7              		.eabi_attribute 24, 1
   8              		.eabi_attribute 25, 1
   9              		.eabi_attribute 26, 1
  10              		.eabi_attribute 30, 1
  11              		.eabi_attribute 34, 1
  12              		.eabi_attribute 18, 4
  13              		.thumb
  14              		.syntax unified
  15              		.file	"intToASCII.c"
  16              		.text
  17              	.Ltext0:
  18              		.cfi_sections	.debug_frame
  19              		.section	.text.intToASCII,"ax",%progbits
  20              		.align	2
  21              		.global	intToASCII
  22              		.thumb
  23              		.thumb_func
  24              		.type	intToASCII, %function
  25              	intToASCII:
  26              	.LFB110:
  27              		.file 1 "source\\bsw\\intToASCII.c"
   1:source\bsw/intToASCII.c **** /* ========================================
   2:source\bsw/intToASCII.c ****  *
   3:source\bsw/intToASCII.c ****  * Copyright YOUR COMPANY, THE YEAR
   4:source\bsw/intToASCII.c ****  * All Rights Reserved
   5:source\bsw/intToASCII.c ****  * UNPUBLISHED, LICENSED SOFTWARE.
   6:source\bsw/intToASCII.c ****  *
   7:source\bsw/intToASCII.c ****  * CONFIDENTIAL AND PROPRIETARY INFORMATION
   8:source\bsw/intToASCII.c ****  * WHICH IS THE PROPERTY OF your company.
   9:source\bsw/intToASCII.c ****  *
  10:source\bsw/intToASCII.c ****  * ========================================
  11:source\bsw/intToASCII.c **** */
  12:source\bsw/intToASCII.c **** 
  13:source\bsw/intToASCII.c **** //standard libraries
  14:source\bsw/intToASCII.c **** #include <stdlib.h>
  15:source\bsw/intToASCII.c **** 
  16:source\bsw/intToASCII.c **** // Project libraries
  17:source\bsw/intToASCII.c **** #include "project.h"
  18:source\bsw/intToASCII.c **** #include "global.h"
  19:source\bsw/intToASCII.c **** 
  20:source\bsw/intToASCII.c **** // Custom libraries
  21:source\bsw/intToASCII.c **** 
  22:source\bsw/intToASCII.c **** // Project specific header inclusions.
  23:source\bsw/intToASCII.c **** #include "intToASCII.h"
  24:source\bsw/intToASCII.c **** 
  25:source\bsw/intToASCII.c **** RC_t intToASCII(uint32_t integerNum, uint8_t* asciiEquiPtr, uint8_t noDigits)
  26:source\bsw/intToASCII.c **** {
  28              		.loc 1 26 0
  29              		.cfi_startproc
  30              		@ args = 0, pretend = 0, frame = 0
  31              		@ frame_needed = 0, uses_anonymous_args = 0
ARM GAS  C:\Users\JASON\AppData\Local\Temp\cczCnOwf.s 			page 2


  32              		@ link register save eliminated.
  33              	.LVL0:
  34 0000 F0B4     		push	{r4, r5, r6, r7}
  35              		.cfi_def_cfa_offset 16
  36              		.cfi_offset 4, -16
  37              		.cfi_offset 5, -12
  38              		.cfi_offset 6, -8
  39              		.cfi_offset 7, -4
  40              	.LVL1:
  41              	.LBB2:
  27:source\bsw/intToASCII.c ****     for (uint8_t i = 1; i <= noDigits; i++)
  42              		.loc 1 27 0
  43 0002 0124     		movs	r4, #1
  44 0004 0EE0     		b	.L2
  45              	.LVL2:
  46              	.L3:
  28:source\bsw/intToASCII.c ****     {
  29:source\bsw/intToASCII.c ****         *(asciiEquiPtr+noDigits-i) = 0x30+(integerNum%10);
  47              		.loc 1 29 0 discriminator 3
  48 0006 171B     		subs	r7, r2, r4
  49 0008 094B     		ldr	r3, .L5
  50 000a A3FB0053 		umull	r5, r3, r3, r0
  51 000e DB08     		lsrs	r3, r3, #3
  52 0010 1E46     		mov	r6, r3
  53 0012 03EB8303 		add	r3, r3, r3, lsl #2
  54 0016 5D00     		lsls	r5, r3, #1
  55 0018 431B     		subs	r3, r0, r5
  56 001a 3033     		adds	r3, r3, #48
  57 001c CB55     		strb	r3, [r1, r7]
  30:source\bsw/intToASCII.c **** 
  31:source\bsw/intToASCII.c ****         integerNum /= 10;
  58              		.loc 1 31 0 discriminator 3
  59 001e 3046     		mov	r0, r6
  60              	.LVL3:
  27:source\bsw/intToASCII.c ****     {
  61              		.loc 1 27 0 discriminator 3
  62 0020 0134     		adds	r4, r4, #1
  63              	.LVL4:
  64 0022 E4B2     		uxtb	r4, r4
  65              	.LVL5:
  66              	.L2:
  27:source\bsw/intToASCII.c ****     {
  67              		.loc 1 27 0 is_stmt 0 discriminator 1
  68 0024 9442     		cmp	r4, r2
  69 0026 EED9     		bls	.L3
  70              	.LBE2:
  32:source\bsw/intToASCII.c ****     }
  33:source\bsw/intToASCII.c **** 
  34:source\bsw/intToASCII.c ****     *(asciiEquiPtr+noDigits) = 0;
  71              		.loc 1 34 0 is_stmt 1
  72 0028 0020     		movs	r0, #0
  73              	.LVL6:
  74 002a 8854     		strb	r0, [r1, r2]
  35:source\bsw/intToASCII.c ****     
  36:source\bsw/intToASCII.c ****     return RC_SUCCESS;
  37:source\bsw/intToASCII.c **** }
  75              		.loc 1 37 0
ARM GAS  C:\Users\JASON\AppData\Local\Temp\cczCnOwf.s 			page 3


  76 002c F0BC     		pop	{r4, r5, r6, r7}
  77              		.cfi_restore 7
  78              		.cfi_restore 6
  79              		.cfi_restore 5
  80              		.cfi_restore 4
  81              		.cfi_def_cfa_offset 0
  82              	.LVL7:
  83 002e 7047     		bx	lr
  84              	.L6:
  85              		.align	2
  86              	.L5:
  87 0030 CDCCCCCC 		.word	-858993459
  88              		.cfi_endproc
  89              	.LFE110:
  90              		.size	intToASCII, .-intToASCII
  91              		.text
  92              	.Letext0:
  93              		.file 2 "c:\\program files (x86)\\cypress\\psoc creator\\4.4\\psoc creator\\import\\gnu\\arm\\5.4.
  94              		.file 3 "c:\\program files (x86)\\cypress\\psoc creator\\4.4\\psoc creator\\import\\gnu\\arm\\5.4.
  95              		.file 4 "Generated_Source\\PSoC5/ErikaOS_common_ee_types.inc"
  96              		.file 5 "Generated_Source\\PSoC5/ErikaOS_cortex_mx_ee_cpu.inc"
  97              		.file 6 "source\\bsw\\global.h"
  98              		.file 7 "Generated_Source\\PSoC5/ErikaOS_ee_oo_intfunc.inc"
  99              		.file 8 "Generated_Source\\PSoC5/ErikaOS_cortex_mx_ee_context.inc"
 100              		.file 9 "Generated_Source\\PSoC5/ErikaOS_common_ee_primitives.inc"
 101              		.file 10 "Generated_Source\\PSoC5/core_cm3.h"