ARM GAS  C:\Users\JASON\AppData\Local\Temp\ccRz6Sma.s 			page 1


   1              		.syntax unified
   2              		.cpu cortex-m3
   3              		.fpu softvfp
   4              		.eabi_attribute 20, 1
   5              		.eabi_attribute 21, 1
   6              		.eabi_attribute 23, 3
   7              		.eabi_attribute 24, 1
   8              		.eabi_attribute 25, 1
   9              		.eabi_attribute 26, 1
  10              		.eabi_attribute 30, 1
  11              		.eabi_attribute 34, 1
  12              		.eabi_attribute 18, 4
  13              		.thumb
  14              		.syntax unified
  15              		.file	"swc_joystick.c"
  16              		.text
  17              	.Ltext0:
  18              		.cfi_sections	.debug_frame
  19              		.section	.text.JOYSTICK_readJoystick_run,"ax",%progbits
  20              		.align	2
  21              		.global	JOYSTICK_readJoystick_run
  22              		.thumb
  23              		.thumb_func
  24              		.type	JOYSTICK_readJoystick_run, %function
  25              	JOYSTICK_readJoystick_run:
  26              	.LFB150:
  27              		.file 1 "source\\asw\\swc_joystick.c"
   1:source\asw/swc_joystick.c **** 
   2:source\asw/swc_joystick.c **** 
   3:source\asw/swc_joystick.c **** /*
   4:source\asw/swc_joystick.c ****  * Filename: swc_joystick.c
   5:source\asw/swc_joystick.c ****  *
   6:source\asw/swc_joystick.c ****  * Author: Autogenerated by H-DA RTE Generator, (c) Prof. Fromm
   7:source\asw/swc_joystick.c ****  */
   8:source\asw/swc_joystick.c **** 
   9:source\asw/swc_joystick.c **** #include "project.h"
  10:source\asw/swc_joystick.c **** #include "global.h"
  11:source\asw/swc_joystick.c **** #include "rte.h"
  12:source\asw/swc_joystick.c **** #include "rte_types.h"
  13:source\asw/swc_joystick.c **** #include "swc_joystick.h"
  14:source\asw/swc_joystick.c **** 
  15:source\asw/swc_joystick.c **** 
  16:source\asw/swc_joystick.c **** 
  17:source\asw/swc_joystick.c **** /* USER CODE START SWC_JOYSTICK_INCLUDE */
  18:source\asw/swc_joystick.c **** #include "intToASCII.h"
  19:source\asw/swc_joystick.c **** #include "watchdog.h"
  20:source\asw/swc_joystick.c **** 
  21:source\asw/swc_joystick.c **** /* USER CODE END SWC_JOYSTICK_INCLUDE */
  22:source\asw/swc_joystick.c **** 
  23:source\asw/swc_joystick.c **** 
  24:source\asw/swc_joystick.c **** #include "sp_common.h"
  25:source\asw/swc_joystick.c **** 
  26:source\asw/swc_joystick.c **** /* USER CODE START SWC_JOYSTICK_USERDEFINITIONS */
  27:source\asw/swc_joystick.c **** 
  28:source\asw/swc_joystick.c **** /* USER CODE END SWC_JOYSTICK_USERDEFINITIONS */
  29:source\asw/swc_joystick.c **** 
  30:source\asw/swc_joystick.c **** 
ARM GAS  C:\Users\JASON\AppData\Local\Temp\ccRz6Sma.s 			page 2


  31:source\asw/swc_joystick.c **** 
  32:source\asw/swc_joystick.c **** /*
  33:source\asw/swc_joystick.c **** * component: swc_joystick
  34:source\asw/swc_joystick.c **** * cycletime: 10
  35:source\asw/swc_joystick.c **** * description: Runnable for the joystick.
  36:source\asw/swc_joystick.c **** * events: 
  37:source\asw/swc_joystick.c **** * name: JOYSTICK_readJoystick_run
  38:source\asw/swc_joystick.c **** * shortname: readJoystick
  39:source\asw/swc_joystick.c **** * signalIN: 
  40:source\asw/swc_joystick.c **** * signalOUT: so_joystick
  41:source\asw/swc_joystick.c **** * task: tsk_inputoutput
  42:source\asw/swc_joystick.c **** */
  43:source\asw/swc_joystick.c **** void JOYSTICK_readJoystick_run(RTE_event ev){
  28              		.loc 1 43 0
  29              		.cfi_startproc
  30              		@ args = 0, pretend = 0, frame = 8
  31              		@ frame_needed = 0, uses_anonymous_args = 0
  32              	.LVL0:
  33 0000 70B5     		push	{r4, r5, r6, lr}
  34              		.cfi_def_cfa_offset 16
  35              		.cfi_offset 4, -16
  36              		.cfi_offset 5, -12
  37              		.cfi_offset 6, -8
  38              		.cfi_offset 14, -4
  39 0002 82B0     		sub	sp, sp, #8
  40              		.cfi_def_cfa_offset 24
  44:source\asw/swc_joystick.c **** 	
  45:source\asw/swc_joystick.c **** 	/* USER CODE START JOYSTICK_readJoystick_run */
  46:source\asw/swc_joystick.c ****     
  47:source\asw/swc_joystick.c ****     static RC_t res = RC_SUCCESS;
  48:source\asw/swc_joystick.c ****     static char asciiConvert[30];
  49:source\asw/swc_joystick.c ****     
  50:source\asw/swc_joystick.c ****     /*
  51:source\asw/swc_joystick.c ****      * Updating the Alive Monitoring register. 
  52:source\asw/swc_joystick.c ****      * Bit Position 0 - RUNNABLE_READJOYSTICK
  53:source\asw/swc_joystick.c ****      **/
  54:source\asw/swc_joystick.c ****     WD_Alive(0);
  41              		.loc 1 54 0
  42 0004 0020     		movs	r0, #0
  43              	.LVL1:
  44 0006 FFF7FEFF 		bl	WD_Alive
  45              	.LVL2:
  55:source\asw/swc_joystick.c ****     /**
  56:source\asw/swc_joystick.c ****      * Error Handling
  57:source\asw/swc_joystick.c ****      **/
  58:source\asw/swc_joystick.c ****     if(res != RC_SUCCESS)
  46              		.loc 1 58 0
  47 000a 304B     		ldr	r3, .L15
  48 000c 93F90030 		ldrsb	r3, [r3]
  49 0010 13B1     		cbz	r3, .L2
  59:source\asw/swc_joystick.c ****     {
  60:source\asw/swc_joystick.c ****         UART_LOG_PutString("Watchdog Status register update failed. \n");   
  50              		.loc 1 60 0
  51 0012 2F48     		ldr	r0, .L15+4
  52 0014 FFF7FEFF 		bl	UART_LOG_PutString
  53              	.LVL3:
  54              	.L2:
ARM GAS  C:\Users\JASON\AppData\Local\Temp\ccRz6Sma.s 			page 3


  55              	.LBB22:
  56              	.LBB23:
  57              		.file 2 ".\\source\\rte/sc_joystick.h"
   1:.\source\rte/sc_joystick.h **** 
   2:.\source\rte/sc_joystick.h **** 
   3:.\source\rte/sc_joystick.h **** /**
   4:.\source\rte/sc_joystick.h **** *  file    SC_JOYSTICK_signal.h
   5:.\source\rte/sc_joystick.h **** *
   6:.\source\rte/sc_joystick.h **** *  brief   signal base class for signal sc_joystick
   7:.\source\rte/sc_joystick.h **** *
   8:.\source\rte/sc_joystick.h **** *  author  Autogenerated, Peter Fromm       <peter.fromm@h-da.de>
   9:.\source\rte/sc_joystick.h **** *
  10:.\source\rte/sc_joystick.h **** *
  11:.\source\rte/sc_joystick.h **** */
  12:.\source\rte/sc_joystick.h **** 
  13:.\source\rte/sc_joystick.h **** /*
  14:.\source\rte/sc_joystick.h **** * description: Signalclass representing the user input.
  15:.\source\rte/sc_joystick.h **** * name: sc_joystick
  16:.\source\rte/sc_joystick.h **** * shortname: joystick
  17:.\source\rte/sc_joystick.h **** */
  18:.\source\rte/sc_joystick.h **** 
  19:.\source\rte/sc_joystick.h **** #ifndef SC_JOYSTICK_SIGNAL_H_INCLUDED
  20:.\source\rte/sc_joystick.h **** #define SC_JOYSTICK_SIGNAL_H_INCLUDED
  21:.\source\rte/sc_joystick.h **** 
  22:.\source\rte/sc_joystick.h **** /*================================================[ public includes  ]=============================
  23:.\source\rte/sc_joystick.h **** #include "global.h"
  24:.\source\rte/sc_joystick.h **** #include "project.h"
  25:.\source\rte/sc_joystick.h **** #include "rte.h"
  26:.\source\rte/sc_joystick.h **** #include "rte_types.h"
  27:.\source\rte/sc_joystick.h **** 
  28:.\source\rte/sc_joystick.h **** #include "sc_joystick_type.h"
  29:.\source\rte/sc_joystick.h **** 
  30:.\source\rte/sc_joystick.h **** 
  31:.\source\rte/sc_joystick.h **** /**************************************************************************************************
  32:.\source\rte/sc_joystick.h **** /* The driver API block																						*/
  33:.\source\rte/sc_joystick.h **** /**************************************************************************************************
  34:.\source\rte/sc_joystick.h ****                                                                                                    
  35:.\source\rte/sc_joystick.h **** /**
  36:.\source\rte/sc_joystick.h ****  *  Definition of function types for driver interfaces.
  37:.\source\rte/sc_joystick.h ****  *  I-Port
  38:.\source\rte/sc_joystick.h ****  */
  39:.\source\rte/sc_joystick.h **** typedef RC_t (*SC_JOYSTICK_driverIn_t)(SC_JOYSTICK_data_t * const);
  40:.\source\rte/sc_joystick.h **** 
  41:.\source\rte/sc_joystick.h **** /**
  42:.\source\rte/sc_joystick.h ****  *  Definition of function types for driver interfaces.
  43:.\source\rte/sc_joystick.h ****  *  O-Port
  44:.\source\rte/sc_joystick.h ****  */
  45:.\source\rte/sc_joystick.h **** typedef RC_t (*SC_JOYSTICK_driverOut_t)( const SC_JOYSTICK_data_t * const);
  46:.\source\rte/sc_joystick.h **** 
  47:.\source\rte/sc_joystick.h **** 
  48:.\source\rte/sc_joystick.h **** /**************************************************************************************************
  49:.\source\rte/sc_joystick.h **** /* The signal configuration API block																				*/
  50:.\source\rte/sc_joystick.h **** /**************************************************************************************************
  51:.\source\rte/sc_joystick.h **** 
  52:.\source\rte/sc_joystick.h **** /**
  53:.\source\rte/sc_joystick.h ****  * Instances of the struct SC_JOYSTICK_cfg_t represent the signal object configuration.
  54:.\source\rte/sc_joystick.h ****  */
ARM GAS  C:\Users\JASON\AppData\Local\Temp\ccRz6Sma.s 			page 4


  55:.\source\rte/sc_joystick.h **** struct SC_JOYSTICK_cfg_s
  56:.\source\rte/sc_joystick.h **** {
  57:.\source\rte/sc_joystick.h ****     /**
  58:.\source\rte/sc_joystick.h ****      * Function pointer to the input driver
  59:.\source\rte/sc_joystick.h ****      */
  60:.\source\rte/sc_joystick.h ****     SC_JOYSTICK_driverIn_t const inDriver;
  61:.\source\rte/sc_joystick.h **** 
  62:.\source\rte/sc_joystick.h ****     /**
  63:.\source\rte/sc_joystick.h ****      * Function pointer to the output driver table
  64:.\source\rte/sc_joystick.h ****      */
  65:.\source\rte/sc_joystick.h ****    SC_JOYSTICK_driverOut_t const outDriver;
  66:.\source\rte/sc_joystick.h ****    
  67:.\source\rte/sc_joystick.h ****     /**
  68:.\source\rte/sc_joystick.h ****      * Event onUpdate
  69:.\source\rte/sc_joystick.h ****      */
  70:.\source\rte/sc_joystick.h ****     EventMaskType const evOnUpdate;
  71:.\source\rte/sc_joystick.h ****     
  72:.\source\rte/sc_joystick.h ****     
  73:.\source\rte/sc_joystick.h ****     /**
  74:.\source\rte/sc_joystick.h ****      * Event onError
  75:.\source\rte/sc_joystick.h ****      */
  76:.\source\rte/sc_joystick.h ****     EventMaskType const evOnError;
  77:.\source\rte/sc_joystick.h ****     
  78:.\source\rte/sc_joystick.h ****     /**
  79:.\source\rte/sc_joystick.h ****      * Task Count onUpdate
  80:.\source\rte/sc_joystick.h ****      */
  81:.\source\rte/sc_joystick.h ****     size_t const onUpdateTaskCount;
  82:.\source\rte/sc_joystick.h **** 
  83:.\source\rte/sc_joystick.h ****     /**
  84:.\source\rte/sc_joystick.h ****      * Task List onUpdate
  85:.\source\rte/sc_joystick.h ****      */
  86:.\source\rte/sc_joystick.h ****     TaskTypeArray* const onUpdateTasks;
  87:.\source\rte/sc_joystick.h ****     
  88:.\source\rte/sc_joystick.h ****     /**
  89:.\source\rte/sc_joystick.h ****      * Task Count onError
  90:.\source\rte/sc_joystick.h ****      */
  91:.\source\rte/sc_joystick.h ****     size_t const onErrorTaskCount;
  92:.\source\rte/sc_joystick.h **** 
  93:.\source\rte/sc_joystick.h ****     /**
  94:.\source\rte/sc_joystick.h ****      * Task List onError
  95:.\source\rte/sc_joystick.h ****      */
  96:.\source\rte/sc_joystick.h ****     TaskTypeArray* const onErrorTasks;
  97:.\source\rte/sc_joystick.h **** 	
  98:.\source\rte/sc_joystick.h **** 	
  99:.\source\rte/sc_joystick.h **** 	/**
 100:.\source\rte/sc_joystick.h **** 	 * Ressourse is active? We need an additional boolean as a ressource value 0 is valid.
 101:.\source\rte/sc_joystick.h **** 	 */
 102:.\source\rte/sc_joystick.h **** 	 boolean_t const resourceActive;
 103:.\source\rte/sc_joystick.h **** 	 
 104:.\source\rte/sc_joystick.h **** 	/**
 105:.\source\rte/sc_joystick.h **** 	 * Ressourse 
 106:.\source\rte/sc_joystick.h **** 	 */
 107:.\source\rte/sc_joystick.h **** 	 ResourceType const resource;
 108:.\source\rte/sc_joystick.h **** 
 109:.\source\rte/sc_joystick.h **** };                                                                                                 
 110:.\source\rte/sc_joystick.h **** typedef const struct SC_JOYSTICK_cfg_s SC_JOYSTICK_cfg_t;
 111:.\source\rte/sc_joystick.h ****                               
ARM GAS  C:\Users\JASON\AppData\Local\Temp\ccRz6Sma.s 			page 5


 112:.\source\rte/sc_joystick.h **** /**************************************************************************************************
 113:.\source\rte/sc_joystick.h **** /* The data interface block																							*/
 114:.\source\rte/sc_joystick.h **** /**************************************************************************************************
 115:.\source\rte/sc_joystick.h **** 
 116:.\source\rte/sc_joystick.h ****                                                                                                    
 117:.\source\rte/sc_joystick.h **** 							  
 118:.\source\rte/sc_joystick.h **** /**
 119:.\source\rte/sc_joystick.h ****  * Instances of the struct SC_JOYSTICK_t represent the signal objects.
 120:.\source\rte/sc_joystick.h ****  * A signal object contains the current application value 'value' as well as relevant meta data.
 121:.\source\rte/sc_joystick.h ****  */
 122:.\source\rte/sc_joystick.h **** struct SC_JOYSTICK_s
 123:.\source\rte/sc_joystick.h **** {                                                                                                  
 124:.\source\rte/sc_joystick.h **** 
 125:.\source\rte/sc_joystick.h **** 	/**
 126:.\source\rte/sc_joystick.h **** 	 * Data buffer for the application value
 127:.\source\rte/sc_joystick.h **** 	 */
 128:.\source\rte/sc_joystick.h ****     SC_JOYSTICK_data_t value;
 129:.\source\rte/sc_joystick.h **** 
 130:.\source\rte/sc_joystick.h ****     /**
 131:.\source\rte/sc_joystick.h ****      * Current signal status
 132:.\source\rte/sc_joystick.h ****      */
 133:.\source\rte/sc_joystick.h ****     RTE_signalStatus_t status;
 134:.\source\rte/sc_joystick.h **** 
 135:.\source\rte/sc_joystick.h ****     /**
 136:.\source\rte/sc_joystick.h ****      * Current age of the signal (in calling cycles)
 137:.\source\rte/sc_joystick.h ****      */
 138:.\source\rte/sc_joystick.h ****     uint32_t age;
 139:.\source\rte/sc_joystick.h **** 
 140:.\source\rte/sc_joystick.h ****     /**
 141:.\source\rte/sc_joystick.h ****      * Pointer to the signal configuration
 142:.\source\rte/sc_joystick.h ****      */
 143:.\source\rte/sc_joystick.h **** 	const SC_JOYSTICK_cfg_t * const    pSigCfg;
 144:.\source\rte/sc_joystick.h **** 
 145:.\source\rte/sc_joystick.h **** };                                                                                                 
 146:.\source\rte/sc_joystick.h **** typedef struct SC_JOYSTICK_s SC_JOYSTICK_t;
 147:.\source\rte/sc_joystick.h **** 
 148:.\source\rte/sc_joystick.h **** /**************************************************************************************************
 149:.\source\rte/sc_joystick.h **** /* Signal initialisation   																							*/
 150:.\source\rte/sc_joystick.h **** /**************************************************************************************************
 151:.\source\rte/sc_joystick.h **** 
 152:.\source\rte/sc_joystick.h **** /**
 153:.\source\rte/sc_joystick.h ****  * Initializes a signal instance with a passed init value.
 154:.\source\rte/sc_joystick.h ****  * Depending on the configured conversion or scaling function the raw_value will be calculated.
 155:.\source\rte/sc_joystick.h ****  * Signal status will change from RTE_SIGNALSTATUS_STARTUP to RTE_SIGNALSTATUS_INITIALIZED.
 156:.\source\rte/sc_joystick.h ****  *
 157:.\source\rte/sc_joystick.h ****  * @param  SC_JOYSTICK_t * const signal: Pointer to the signal object which will be initialised
 158:.\source\rte/sc_joystick.h ****  * @param const sc_joystick_data_t * const value: Pointer to initial value of the application data
 159:.\source\rte/sc_joystick.h ****  * @return RC_t: standard return code, currently only RC_SUCCESS
 160:.\source\rte/sc_joystick.h ****  *
 161:.\source\rte/sc_joystick.h ****  **/
 162:.\source\rte/sc_joystick.h **** inline RC_t RTE_SC_JOYSTICK_init( SC_JOYSTICK_t * const signal, const SC_JOYSTICK_data_t * const va
 163:.\source\rte/sc_joystick.h **** {                                                                                                  
 164:.\source\rte/sc_joystick.h **** 
 165:.\source\rte/sc_joystick.h ****    RC_t ret = RC_SUCCESS;
 166:.\source\rte/sc_joystick.h **** 
 167:.\source\rte/sc_joystick.h ****    //Set value and raw value
 168:.\source\rte/sc_joystick.h ****    signal->value  = *value;
ARM GAS  C:\Users\JASON\AppData\Local\Temp\ccRz6Sma.s 			page 6


 169:.\source\rte/sc_joystick.h ****    signal->age    = 0;
 170:.\source\rte/sc_joystick.h ****    signal->status = RTE_SIGNALSTATUS_INITIALIZED;
 171:.\source\rte/sc_joystick.h **** 
 172:.\source\rte/sc_joystick.h ****    return ret;
 173:.\source\rte/sc_joystick.h **** }
 174:.\source\rte/sc_joystick.h **** 
 175:.\source\rte/sc_joystick.h **** /**************************************************************************************************
 176:.\source\rte/sc_joystick.h **** /* Status and timeout control																						*/
 177:.\source\rte/sc_joystick.h **** /**************************************************************************************************
 178:.\source\rte/sc_joystick.h **** 
 179:.\source\rte/sc_joystick.h **** /**
 180:.\source\rte/sc_joystick.h ****  *  Returns the current signal status of the passed signal instance.
 181:.\source\rte/sc_joystick.h ****  *
 182:.\source\rte/sc_joystick.h ****  * @param  SC_JOYSTICK_t * const signal: Pointer to the signal object
 183:.\source\rte/sc_joystick.h ****  * @return  sig_status_t: The current signal status
 184:.\source\rte/sc_joystick.h ****  *
 185:.\source\rte/sc_joystick.h ****  **/
 186:.\source\rte/sc_joystick.h **** inline RTE_signalStatus_t RTE_SC_JOYSTICK_getStatus( const SC_JOYSTICK_t * const signal )
 187:.\source\rte/sc_joystick.h **** {
 188:.\source\rte/sc_joystick.h ****    return signal->status;
 189:.\source\rte/sc_joystick.h **** }
 190:.\source\rte/sc_joystick.h **** 
 191:.\source\rte/sc_joystick.h **** 
 192:.\source\rte/sc_joystick.h **** /**
 193:.\source\rte/sc_joystick.h ****  *  Sets a new signal status of the passed signal instance by passing the new status.
 194:.\source\rte/sc_joystick.h ****  *
 195:.\source\rte/sc_joystick.h ****  * @param  SC_JOYSTICK_t * const signal: Pointer to the signal object
 196:.\source\rte/sc_joystick.h ****  * @param  const sig_status_t status: New signal status
 197:.\source\rte/sc_joystick.h ****  * @return RC_t: standard return code, currently only RC_SUCCESS
 198:.\source\rte/sc_joystick.h ****  *
 199:.\source\rte/sc_joystick.h ****  */
 200:.\source\rte/sc_joystick.h **** inline RC_t RTE_SC_JOYSTICK_setStatus( SC_JOYSTICK_t * const signal, const RTE_signalStatus_t statu
 201:.\source\rte/sc_joystick.h **** {
 202:.\source\rte/sc_joystick.h ****    signal->status = status;
 203:.\source\rte/sc_joystick.h ****    size_t taskNum=0;
 204:.\source\rte/sc_joystick.h ****    
 205:.\source\rte/sc_joystick.h ****    //Fire error events in case of invalid state
 206:.\source\rte/sc_joystick.h ****    if (signal->status == RTE_SIGNALSTATUS_INVALID)
 207:.\source\rte/sc_joystick.h ****    {
 208:.\source\rte/sc_joystick.h **** 	    //Pointer to the Taskarray, containing the tasks receiving the onUpdate events
 209:.\source\rte/sc_joystick.h **** 		TaskTypeArray* pTaskArray = signal->pSigCfg->onErrorTasks;
 210:.\source\rte/sc_joystick.h **** 
 211:.\source\rte/sc_joystick.h **** 		if (NULL!=signal->pSigCfg->evOnError && NULL != pTaskArray){
 212:.\source\rte/sc_joystick.h **** 			for( taskNum=0 ; taskNum < signal->pSigCfg->onErrorTaskCount ;taskNum++){
 213:.\source\rte/sc_joystick.h **** 				TaskType task = (*pTaskArray)[taskNum];
 214:.\source\rte/sc_joystick.h **** 				SetEvent( task, signal->pSigCfg->evOnError);
 215:.\source\rte/sc_joystick.h **** 			}
 216:.\source\rte/sc_joystick.h **** 		}
 217:.\source\rte/sc_joystick.h ****    }
 218:.\source\rte/sc_joystick.h ****    
 219:.\source\rte/sc_joystick.h ****    return RC_SUCCESS;
 220:.\source\rte/sc_joystick.h **** }
 221:.\source\rte/sc_joystick.h **** 
 222:.\source\rte/sc_joystick.h **** 
 223:.\source\rte/sc_joystick.h **** /**
 224:.\source\rte/sc_joystick.h ****  * Returns the count of refreshing trials (refresh, set or set_raw) that failed.
 225:.\source\rte/sc_joystick.h ****  * Prerquisite: The signal is refreshed cyclically
ARM GAS  C:\Users\JASON\AppData\Local\Temp\ccRz6Sma.s 			page 7


 226:.\source\rte/sc_joystick.h ****  *
 227:.\source\rte/sc_joystick.h ****  * @param  SC_JOYSTICK_t * const signal: Pointer to the signal object
 228:.\source\rte/sc_joystick.h ****  * @return uint32_t: Number of cycles since the signal has been updated for the last time
 229:.\source\rte/sc_joystick.h ****  */
 230:.\source\rte/sc_joystick.h **** inline uint32_t RTE_SC_JOYSTICK_getAge( const SC_JOYSTICK_t * const signal )
 231:.\source\rte/sc_joystick.h **** {
 232:.\source\rte/sc_joystick.h ****    return signal->age;
 233:.\source\rte/sc_joystick.h **** }
 234:.\source\rte/sc_joystick.h **** 
 235:.\source\rte/sc_joystick.h **** /**
 236:.\source\rte/sc_joystick.h ****  * Should be called by application or driver if no new value can be provided.
 237:.\source\rte/sc_joystick.h ****  * @param  SC_JOYSTICK_t * const signal: Pointer to the signal object
 238:.\source\rte/sc_joystick.h ****  * @param uint32_t increment: incrementvalue, typically in [ms]
 239:.\source\rte/sc_joystick.h ****  * @return void
 240:.\source\rte/sc_joystick.h ****  */
 241:.\source\rte/sc_joystick.h **** inline void RTE_SC_JOYSTICK_incAge(  SC_JOYSTICK_t * const signal , uint32_t increment)
 242:.\source\rte/sc_joystick.h **** {
 243:.\source\rte/sc_joystick.h **** 	   //Hack....
 244:.\source\rte/sc_joystick.h **** 	   if ( 0xFFFF0000 > (signal->age + increment) )
 245:.\source\rte/sc_joystick.h **** 	   {
 246:.\source\rte/sc_joystick.h **** 	      signal->age += increment;
 247:.\source\rte/sc_joystick.h **** 	   }
 248:.\source\rte/sc_joystick.h **** }
 249:.\source\rte/sc_joystick.h **** 
 250:.\source\rte/sc_joystick.h **** 
 251:.\source\rte/sc_joystick.h **** /**************************************************************************************************
 252:.\source\rte/sc_joystick.h **** /* Application Data read/write Interface																			*/
 253:.\source\rte/sc_joystick.h **** /**************************************************************************************************
 254:.\source\rte/sc_joystick.h **** 
 255:.\source\rte/sc_joystick.h **** /**
 256:.\source\rte/sc_joystick.h ****  * Returns the current application value of the passed signal instance.
 257:.\source\rte/sc_joystick.h ****  *
 258:.\source\rte/sc_joystick.h ****  * @param  SC_JOYSTICK_t * const signal: Pointer to the signal object
 259:.\source\rte/sc_joystick.h ****  * @return sc_joystick_data_t: current value of the application data buffer
 260:.\source\rte/sc_joystick.h ****  *
 261:.\source\rte/sc_joystick.h ****  **/
 262:.\source\rte/sc_joystick.h **** inline SC_JOYSTICK_data_t RTE_SC_JOYSTICK_get( const SC_JOYSTICK_t * const signal )
 263:.\source\rte/sc_joystick.h **** {               
 264:.\source\rte/sc_joystick.h ****    //Todo: Critical region cannot be protected using return values																						
 265:.\source\rte/sc_joystick.h ****    return signal->value;                                                                           
 266:.\source\rte/sc_joystick.h **** }                                                                                                  
 267:.\source\rte/sc_joystick.h ****                                                                                                    
 268:.\source\rte/sc_joystick.h **** /**
 269:.\source\rte/sc_joystick.h ****  * Returns the current application value of the passed signal instance threadsafe.
 270:.\source\rte/sc_joystick.h ****  *
 271:.\source\rte/sc_joystick.h ****  * @param  SC_JOYSTICK_t * const signal: Pointer to the signal object
 272:.\source\rte/sc_joystick.h ****  * @param  SC_JOYSTICK_data_t* data: Pointer to the return data Pointer to the signal object
 273:.\source\rte/sc_joystick.h ****  * @return RC_SUCCESS
 274:.\source\rte/sc_joystick.h ****  *
 275:.\source\rte/sc_joystick.h ****  **/
 276:.\source\rte/sc_joystick.h **** inline RC_t RTE_SC_JOYSTICK_getThreadSafe( const SC_JOYSTICK_t * const signal, SC_JOYSTICK_data_t *
 277:.\source\rte/sc_joystick.h **** {    
 278:.\source\rte/sc_joystick.h ****    if (TRUE == signal->pSigCfg->resourceActive) GetResource(signal->pSigCfg->resource);
 279:.\source\rte/sc_joystick.h ****    *data = signal->value;
 280:.\source\rte/sc_joystick.h ****    if (TRUE == signal->pSigCfg->resourceActive) ReleaseResource(signal->pSigCfg->resource);        
 281:.\source\rte/sc_joystick.h **** 
 282:.\source\rte/sc_joystick.h ****    return RC_SUCCESS;                                                                   
ARM GAS  C:\Users\JASON\AppData\Local\Temp\ccRz6Sma.s 			page 8


 283:.\source\rte/sc_joystick.h ****    
 284:.\source\rte/sc_joystick.h **** }                                                                                                  
 285:.\source\rte/sc_joystick.h ****                                                                                                    
 286:.\source\rte/sc_joystick.h **** /**
 287:.\source\rte/sc_joystick.h ****  * Sets a new application value to the passed signal instance by passing the new value.
 288:.\source\rte/sc_joystick.h ****  * The corresponding driver raw value will be calculated immediately by using the default conversio
 289:.\source\rte/sc_joystick.h ****  * signal specific scaling function.
 290:.\source\rte/sc_joystick.h ****  * The signal age will be set to 0 and the new status will be 'RTE_SIGNALSTATUS_VALID'.
 291:.\source\rte/sc_joystick.h ****  *
 292:.\source\rte/sc_joystick.h ****  * @param  SC_JOYSTICK_t * const signal: Pointer to the signal object
 293:.\source\rte/sc_joystick.h ****  * @param  sc_joystick_data_t const value: value for the application data buffer
 294:.\source\rte/sc_joystick.h ****  * @return RC_t: standard return code, currently only RC_SUCCESS
 295:.\source\rte/sc_joystick.h ****  *
 296:.\source\rte/sc_joystick.h ****  **/
 297:.\source\rte/sc_joystick.h **** inline RC_t RTE_SC_JOYSTICK_set(SC_JOYSTICK_t * const signal, const SC_JOYSTICK_data_t value  )
 298:.\source\rte/sc_joystick.h **** {
 299:.\source\rte/sc_joystick.h **** 
 300:.\source\rte/sc_joystick.h ****    RC_t ret = RC_SUCCESS;
 301:.\source\rte/sc_joystick.h ****    size_t taskNum=0;
 302:.\source\rte/sc_joystick.h **** 
 303:.\source\rte/sc_joystick.h **** 
 304:.\source\rte/sc_joystick.h ****    if (TRUE == signal->pSigCfg->resourceActive) GetResource(signal->pSigCfg->resource);
 305:.\source\rte/sc_joystick.h ****    signal->value  = value;
 306:.\source\rte/sc_joystick.h ****    signal->age    = 0;
 307:.\source\rte/sc_joystick.h ****    signal->status = RTE_SIGNALSTATUS_VALID;
 308:.\source\rte/sc_joystick.h ****    if (TRUE == signal->pSigCfg->resourceActive) ReleaseResource(signal->pSigCfg->resource);
 309:.\source\rte/sc_joystick.h **** 
 310:.\source\rte/sc_joystick.h ****    //Pointer to the Taskarray, containing the tasks receiving the onUpdate events
 311:.\source\rte/sc_joystick.h ****    TaskTypeArray* pTaskArray = signal->pSigCfg->onUpdateTasks;
 312:.\source\rte/sc_joystick.h **** 
 313:.\source\rte/sc_joystick.h ****    if (NULL!=signal->pSigCfg->evOnUpdate && NULL != pTaskArray){
 314:.\source\rte/sc_joystick.h ****       for( taskNum=0 ; taskNum < signal->pSigCfg->onUpdateTaskCount ;taskNum++){
 315:.\source\rte/sc_joystick.h **** 		  
 316:.\source\rte/sc_joystick.h ****           TaskType task = (*pTaskArray)[taskNum];
 317:.\source\rte/sc_joystick.h **** 	      SetEvent( task, signal->pSigCfg->evOnUpdate);
 318:.\source\rte/sc_joystick.h ****       }
 319:.\source\rte/sc_joystick.h ****    }
 320:.\source\rte/sc_joystick.h **** 
 321:.\source\rte/sc_joystick.h ****    return ret;
 322:.\source\rte/sc_joystick.h **** }                                                                                                  
 323:.\source\rte/sc_joystick.h ****                                                                                                    
 324:.\source\rte/sc_joystick.h ****                                                                                                    
 325:.\source\rte/sc_joystick.h **** /**************************************************************************************************
 326:.\source\rte/sc_joystick.h **** /* Call functions to the connected drivers																			*/
 327:.\source\rte/sc_joystick.h **** /**************************************************************************************************
 328:.\source\rte/sc_joystick.h **** 
 329:.\source\rte/sc_joystick.h ****                                                                                                    
 330:.\source\rte/sc_joystick.h **** /**
 331:.\source\rte/sc_joystick.h ****  *  Calls the connected driver interface to get a new value.
 332:.\source\rte/sc_joystick.h ****  *
 333:.\source\rte/sc_joystick.h ****  * @param SC_JOYSTICK_t * const signal: Pointer to the signal object
 334:.\source\rte/sc_joystick.h ****  * @return  RC_t: Return value of the driver call
 335:.\source\rte/sc_joystick.h ****  *
 336:.\source\rte/sc_joystick.h ****  */
 337:.\source\rte/sc_joystick.h **** inline RC_t RTE_SC_JOYSTICK_pullPort( SC_JOYSTICK_t * const signal )
 338:.\source\rte/sc_joystick.h **** {                                                                                                  
 339:.\source\rte/sc_joystick.h ****    RC_t ret = RC_SUCCESS;
ARM GAS  C:\Users\JASON\AppData\Local\Temp\ccRz6Sma.s 			page 9


 340:.\source\rte/sc_joystick.h **** 
 341:.\source\rte/sc_joystick.h ****                                                                                                    
 342:.\source\rte/sc_joystick.h ****    if ( NULL != signal->pSigCfg->inDriver )
  58              		.loc 2 342 0
  59 0018 2E4B     		ldr	r3, .L15+8
  60 001a 9B68     		ldr	r3, [r3, #8]
  61 001c 1A68     		ldr	r2, [r3]
  62 001e 002A     		cmp	r2, #0
  63 0020 3DD0     		beq	.L11
  64              	.LBB24:
 343:.\source\rte/sc_joystick.h ****    {
 344:.\source\rte/sc_joystick.h **** 	  SC_JOYSTICK_data_t value = signal->value;
  65              		.loc 2 344 0
  66 0022 2C4A     		ldr	r2, .L15+8
  67 0024 1288     		ldrh	r2, [r2]
  68 0026 02A8     		add	r0, sp, #8
  69 0028 20F8082D 		strh	r2, [r0, #-8]!	@ movhi
 345:.\source\rte/sc_joystick.h ****       ret = signal->pSigCfg->inDriver(&value);
  70              		.loc 2 345 0
  71 002c 1B68     		ldr	r3, [r3]
  72 002e 9847     		blx	r3
  73              	.LVL4:
 346:.\source\rte/sc_joystick.h ****                                                                                                    
 347:.\source\rte/sc_joystick.h ****       if ( ret == RC_SUCCESS )                                                                     
  74              		.loc 2 347 0
  75 0030 0546     		mov	r5, r0
  76 0032 E8B9     		cbnz	r0, .L4
  77              	.LVL5:
  78 0034 BDF80010 		ldrh	r1, [sp]
  79 0038 ADF80410 		strh	r1, [sp, #4]	@ movhi
  80              	.LVL6:
  81              	.LBB25:
  82              	.LBB26:
 304:.\source\rte/sc_joystick.h ****    signal->value  = value;
  83              		.loc 2 304 0
  84 003c 254B     		ldr	r3, .L15+8
  85 003e 9A68     		ldr	r2, [r3, #8]
 305:.\source\rte/sc_joystick.h ****    signal->age    = 0;
  86              		.loc 2 305 0
  87 0040 1980     		strh	r1, [r3]	@ movhi
 306:.\source\rte/sc_joystick.h ****    signal->status = RTE_SIGNALSTATUS_VALID;
  88              		.loc 2 306 0
  89 0042 0021     		movs	r1, #0
  90 0044 5960     		str	r1, [r3, #4]
 307:.\source\rte/sc_joystick.h ****    if (TRUE == signal->pSigCfg->resourceActive) ReleaseResource(signal->pSigCfg->resource);
  91              		.loc 2 307 0
  92 0046 0221     		movs	r1, #2
  93 0048 9970     		strb	r1, [r3, #2]
 311:.\source\rte/sc_joystick.h **** 
  94              		.loc 2 311 0
  95 004a 5669     		ldr	r6, [r2, #20]
  96              	.LVL7:
 313:.\source\rte/sc_joystick.h ****       for( taskNum=0 ; taskNum < signal->pSigCfg->onUpdateTaskCount ;taskNum++){
  97              		.loc 2 313 0
  98 004c 9368     		ldr	r3, [r2, #8]
  99 004e 3BB3     		cbz	r3, .L3
 100 0050 3EB9     		cbnz	r6, .L12
ARM GAS  C:\Users\JASON\AppData\Local\Temp\ccRz6Sma.s 			page 10


 101 0052 25E0     		b	.L3
 102              	.LVL8:
 103              	.L7:
 104              	.LBB27:
 317:.\source\rte/sc_joystick.h ****       }
 105              		.loc 2 317 0
 106 0054 9968     		ldr	r1, [r3, #8]
 107 0056 56F82400 		ldr	r0, [r6, r4, lsl #2]
 108 005a FFF7FEFF 		bl	EE_oo_SetEvent
 109              	.LVL9:
 110              	.LBE27:
 314:.\source\rte/sc_joystick.h **** 		  
 111              		.loc 2 314 0
 112 005e 0134     		adds	r4, r4, #1
 113              	.LVL10:
 114 0060 00E0     		b	.L6
 115              	.LVL11:
 116              	.L12:
 313:.\source\rte/sc_joystick.h ****       for( taskNum=0 ; taskNum < signal->pSigCfg->onUpdateTaskCount ;taskNum++){
 117              		.loc 2 313 0
 118 0062 0024     		movs	r4, #0
 119              	.LVL12:
 120              	.L6:
 314:.\source\rte/sc_joystick.h **** 		  
 121              		.loc 2 314 0
 122 0064 1B4B     		ldr	r3, .L15+8
 123 0066 9B68     		ldr	r3, [r3, #8]
 124 0068 1A69     		ldr	r2, [r3, #16]
 125 006a 9442     		cmp	r4, r2
 126 006c F2D3     		bcc	.L7
 127 006e 17E0     		b	.L3
 128              	.LVL13:
 129              	.L4:
 130              	.LBE26:
 131              	.LBE25:
 132              	.LBB28:
 133              	.LBB29:
 202:.\source\rte/sc_joystick.h ****    size_t taskNum=0;
 134              		.loc 2 202 0
 135 0070 184B     		ldr	r3, .L15+8
 136 0072 0322     		movs	r2, #3
 137 0074 9A70     		strb	r2, [r3, #2]
 138              	.LVL14:
 139              	.LBB30:
 209:.\source\rte/sc_joystick.h **** 
 140              		.loc 2 209 0
 141 0076 9B68     		ldr	r3, [r3, #8]
 142 0078 DE69     		ldr	r6, [r3, #28]
 143              	.LVL15:
 211:.\source\rte/sc_joystick.h **** 			for( taskNum=0 ; taskNum < signal->pSigCfg->onErrorTaskCount ;taskNum++){
 144              		.loc 2 211 0
 145 007a DB68     		ldr	r3, [r3, #12]
 146 007c 83B1     		cbz	r3, .L3
 147 007e 3EB9     		cbnz	r6, .L13
 148 0080 0EE0     		b	.L3
 149              	.LVL16:
 150              	.L9:
ARM GAS  C:\Users\JASON\AppData\Local\Temp\ccRz6Sma.s 			page 11


 151              	.LBB31:
 214:.\source\rte/sc_joystick.h **** 			}
 152              		.loc 2 214 0
 153 0082 D968     		ldr	r1, [r3, #12]
 154 0084 56F82400 		ldr	r0, [r6, r4, lsl #2]
 155 0088 FFF7FEFF 		bl	EE_oo_SetEvent
 156              	.LVL17:
 157              	.LBE31:
 212:.\source\rte/sc_joystick.h **** 				TaskType task = (*pTaskArray)[taskNum];
 158              		.loc 2 212 0
 159 008c 0134     		adds	r4, r4, #1
 160              	.LVL18:
 161 008e 00E0     		b	.L8
 162              	.LVL19:
 163              	.L13:
 211:.\source\rte/sc_joystick.h **** 			for( taskNum=0 ; taskNum < signal->pSigCfg->onErrorTaskCount ;taskNum++){
 164              		.loc 2 211 0
 165 0090 0024     		movs	r4, #0
 166              	.LVL20:
 167              	.L8:
 212:.\source\rte/sc_joystick.h **** 				TaskType task = (*pTaskArray)[taskNum];
 168              		.loc 2 212 0
 169 0092 104B     		ldr	r3, .L15+8
 170 0094 9B68     		ldr	r3, [r3, #8]
 171 0096 9A69     		ldr	r2, [r3, #24]
 172 0098 9442     		cmp	r4, r2
 173 009a F2D3     		bcc	.L9
 174 009c 00E0     		b	.L3
 175              	.LVL21:
 176              	.L11:
 177              	.LBE30:
 178              	.LBE29:
 179              	.LBE28:
 180              	.LBE24:
 339:.\source\rte/sc_joystick.h **** 
 181              		.loc 2 339 0
 182 009e 0025     		movs	r5, #0
 183              	.LVL22:
 184              	.L3:
 185              	.LBE23:
 186              	.LBE22:
  61:source\asw/swc_joystick.c ****     }
  62:source\asw/swc_joystick.c ****     
  63:source\asw/swc_joystick.c ****     /* 
  64:source\asw/swc_joystick.c ****      * Reads the Joystick values. 
  65:source\asw/swc_joystick.c ****      * The function also sets the event 'ev_joystick_onData' for the 'tsk_control'. 
  66:source\asw/swc_joystick.c ****      **/
  67:source\asw/swc_joystick.c ****     res = RTE_SC_JOYSTICK_pullPort(&SO_JOYSTICK_signal);
 187              		.loc 1 67 0
 188 00a0 0A4B     		ldr	r3, .L15
 189 00a2 1D70     		strb	r5, [r3]
  68:source\asw/swc_joystick.c ****     
  69:source\asw/swc_joystick.c ****     /**
  70:source\asw/swc_joystick.c ****      *  Error Handling
  71:source\asw/swc_joystick.c ****      */
  72:source\asw/swc_joystick.c ****     
  73:source\asw/swc_joystick.c ****     if(res != RC_SUCCESS)
ARM GAS  C:\Users\JASON\AppData\Local\Temp\ccRz6Sma.s 			page 12


 190              		.loc 1 73 0
 191 00a4 7DB1     		cbz	r5, .L1
  74:source\asw/swc_joystick.c ****     {
  75:source\asw/swc_joystick.c ****         UART_LOG_PutString("Joystick Data Invalid. Signal Status Error Code : ");
 192              		.loc 1 75 0
 193 00a6 0C48     		ldr	r0, .L15+12
 194 00a8 FFF7FEFF 		bl	UART_LOG_PutString
 195              	.LVL23:
  76:source\asw/swc_joystick.c ****         intToASCII((uint32_t)RTE_SC_JOYSTICK_getStatus(&SO_JOYSTICK_signal), (uint8_t*)&asciiConver
 196              		.loc 1 76 0
 197 00ac 0B4C     		ldr	r4, .L15+16
 198 00ae 0422     		movs	r2, #4
 199 00b0 2146     		mov	r1, r4
 200 00b2 084B     		ldr	r3, .L15+8
 201 00b4 9878     		ldrb	r0, [r3, #2]	@ zero_extendqisi2
 202 00b6 FFF7FEFF 		bl	intToASCII
 203              	.LVL24:
  77:source\asw/swc_joystick.c ****         UART_LOG_PutString(asciiConvert);
 204              		.loc 1 77 0
 205 00ba 2046     		mov	r0, r4
 206 00bc FFF7FEFF 		bl	UART_LOG_PutString
 207              	.LVL25:
  78:source\asw/swc_joystick.c ****         UART_LOG_PutString(". \n");
 208              		.loc 1 78 0
 209 00c0 0748     		ldr	r0, .L15+20
 210 00c2 FFF7FEFF 		bl	UART_LOG_PutString
 211              	.LVL26:
 212              	.L1:
  79:source\asw/swc_joystick.c ****     }
  80:source\asw/swc_joystick.c **** 
  81:source\asw/swc_joystick.c ****     /* USER CODE END JOYSTICK_readJoystick_run */
  82:source\asw/swc_joystick.c **** }
 213              		.loc 1 82 0
 214 00c6 02B0     		add	sp, sp, #8
 215              		.cfi_def_cfa_offset 16
 216              		@ sp needed
 217 00c8 70BD     		pop	{r4, r5, r6, pc}
 218              	.L16:
 219 00ca 00BF     		.align	2
 220              	.L15:
 221 00cc 00000000 		.word	.LANCHOR0
 222 00d0 00000000 		.word	.LC0
 223 00d4 00000000 		.word	SO_JOYSTICK_signal
 224 00d8 2C000000 		.word	.LC1
 225 00dc 04000000 		.word	.LANCHOR0+4
 226 00e0 60000000 		.word	.LC2
 227              		.cfi_endproc
 228              	.LFE150:
 229              		.size	JOYSTICK_readJoystick_run, .-JOYSTICK_readJoystick_run
 230              		.section	.rodata.str1.4,"aMS",%progbits,1
 231              		.align	2
 232              	.LC0:
 233 0000 57617463 		.ascii	"Watchdog Status register update failed. \012\000"
 233      68646F67 
 233      20537461 
 233      74757320 
 233      72656769 
ARM GAS  C:\Users\JASON\AppData\Local\Temp\ccRz6Sma.s 			page 13


 234 002a 0000     		.space	2
 235              	.LC1:
 236 002c 4A6F7973 		.ascii	"Joystick Data Invalid. Signal Status Error Code : \000"
 236      7469636B 
 236      20446174 
 236      6120496E 
 236      76616C69 
 237 005f 00       		.space	1
 238              	.LC2:
 239 0060 2E200A00 		.ascii	". \012\000"
 240              		.bss
 241              		.align	2
 242              		.set	.LANCHOR0,. + 0
 243              		.type	res.6971, %object
 244              		.size	res.6971, 1
 245              	res.6971:
 246 0000 00       		.space	1
 247 0001 000000   		.space	3
 248              		.type	asciiConvert.6972, %object
 249              		.size	asciiConvert.6972, 30
 250              	asciiConvert.6972:
 251 0004 00000000 		.space	30
 251      00000000 
 251      00000000 
 251      00000000 
 251      00000000 
 252              		.text
 253              	.Letext0:
 254              		.file 3 "c:\\program files (x86)\\cypress\\psoc creator\\4.4\\psoc creator\\import\\gnu\\arm\\5.4.
 255              		.file 4 "c:\\program files (x86)\\cypress\\psoc creator\\4.4\\psoc creator\\import\\gnu\\arm\\5.4.
 256              		.file 5 "c:\\program files (x86)\\cypress\\psoc creator\\4.4\\psoc creator\\import\\gnu\\arm\\5.4.
 257              		.file 6 "Generated_Source\\PSoC5/ErikaOS_common_ee_types.inc"
 258              		.file 7 "Generated_Source\\PSoC5/ErikaOS_cortex_mx_ee_cpu.inc"
 259              		.file 8 "Generated_Source\\PSoC5/ErikaOS_ee_oo_common.inc"
 260              		.file 9 ".\\source\\bsw/global.h"
 261              		.file 10 ".\\source\\rte/rte_types.h"
 262              		.file 11 ".\\source\\rte/rte.h"
 263              		.file 12 ".\\source\\rte/sc_joystick_type.h"
 264              		.file 13 "Generated_Source\\PSoC5/ErikaOS_ee_oo_intfunc.inc"
 265              		.file 14 "Generated_Source\\PSoC5/ErikaOS_cortex_mx_ee_context.inc"
 266              		.file 15 "Generated_Source\\PSoC5/ErikaOS_common_ee_primitives.inc"
 267              		.file 16 "Generated_Source\\PSoC5/core_cm3.h"
 268              		.file 17 ".\\source\\rte/sp_common.h"
 269              		.file 18 "Generated_Source\\PSoC5/ErikaOS_ee_oo_kernel.inc"
 270              		.file 19 ".\\source\\bsw/watchdog.h"
 271              		.file 20 "Generated_Source\\PSoC5/UART_LOG.h"
 272              		.file 21 ".\\source\\bsw/intToASCII.h"