ARM GAS  C:\Users\JASON\AppData\Local\Temp\ccNhv63R.s 			page 1


   1              		.syntax unified
   2              		.cpu cortex-m3
   3              		.fpu softvfp
   4              		.eabi_attribute 20, 1
   5              		.eabi_attribute 21, 1
   6              		.eabi_attribute 23, 3
   7              		.eabi_attribute 24, 1
   8              		.eabi_attribute 25, 1
   9              		.eabi_attribute 26, 1
  10              		.eabi_attribute 30, 1
  11              		.eabi_attribute 34, 1
  12              		.eabi_attribute 18, 4
  13              		.thumb
  14              		.syntax unified
  15              		.file	"swc_control.c"
  16              		.text
  17              	.Ltext0:
  18              		.cfi_sections	.debug_frame
  19              		.section	.text.CONTROL_calcControl_run,"ax",%progbits
  20              		.align	2
  21              		.global	CONTROL_calcControl_run
  22              		.thumb
  23              		.thumb_func
  24              		.type	CONTROL_calcControl_run, %function
  25              	CONTROL_calcControl_run:
  26              	.LFB150:
  27              		.file 1 "source\\asw\\swc_control.c"
   1:source\asw/swc_control.c **** 
   2:source\asw/swc_control.c **** 
   3:source\asw/swc_control.c **** /*
   4:source\asw/swc_control.c ****  * Filename: swc_control.c
   5:source\asw/swc_control.c ****  *
   6:source\asw/swc_control.c ****  * Author: Autogenerated by H-DA RTE Generator, (c) Prof. Fromm
   7:source\asw/swc_control.c ****  */
   8:source\asw/swc_control.c **** 
   9:source\asw/swc_control.c **** #include "project.h"
  10:source\asw/swc_control.c **** #include "global.h"
  11:source\asw/swc_control.c **** #include "rte.h"
  12:source\asw/swc_control.c **** #include "rte_types.h"
  13:source\asw/swc_control.c **** #include "swc_control.h"
  14:source\asw/swc_control.c **** 
  15:source\asw/swc_control.c **** 
  16:source\asw/swc_control.c **** 
  17:source\asw/swc_control.c **** /* USER CODE START SWC_CONTROL_INCLUDE */
  18:source\asw/swc_control.c **** 
  19:source\asw/swc_control.c **** #include "intToASCII.h"
  20:source\asw/swc_control.c **** #include "watchdog.h"
  21:source\asw/swc_control.c **** 
  22:source\asw/swc_control.c **** /* USER CODE END SWC_CONTROL_INCLUDE */
  23:source\asw/swc_control.c **** 
  24:source\asw/swc_control.c **** 
  25:source\asw/swc_control.c **** #include "sp_common.h"
  26:source\asw/swc_control.c **** 
  27:source\asw/swc_control.c **** /* USER CODE START SWC_CONTROL_USERDEFINITIONS */
  28:source\asw/swc_control.c **** 
  29:source\asw/swc_control.c **** /* USER CODE END SWC_CONTROL_USERDEFINITIONS */
  30:source\asw/swc_control.c **** 
ARM GAS  C:\Users\JASON\AppData\Local\Temp\ccNhv63R.s 			page 2


  31:source\asw/swc_control.c **** 
  32:source\asw/swc_control.c **** 
  33:source\asw/swc_control.c **** /*
  34:source\asw/swc_control.c **** * component: swc_control
  35:source\asw/swc_control.c **** * cycletime: 0
  36:source\asw/swc_control.c **** * description: Runnable for the calculation control.
  37:source\asw/swc_control.c **** * events: ev_joystick_onData
  38:source\asw/swc_control.c **** * name: CONTROL_calcControl_run
  39:source\asw/swc_control.c **** * shortname: calcControl
  40:source\asw/swc_control.c **** * signalIN: so_joystick
  41:source\asw/swc_control.c **** * signalOUT: so_speed
  42:source\asw/swc_control.c **** * task: tsk_control
  43:source\asw/swc_control.c **** */
  44:source\asw/swc_control.c **** void CONTROL_calcControl_run(RTE_event ev){
  28              		.loc 1 44 0
  29              		.cfi_startproc
  30              		@ args = 0, pretend = 0, frame = 16
  31              		@ frame_needed = 0, uses_anonymous_args = 0
  32              	.LVL0:
  33 0000 30B5     		push	{r4, r5, lr}
  34              		.cfi_def_cfa_offset 12
  35              		.cfi_offset 4, -12
  36              		.cfi_offset 5, -8
  37              		.cfi_offset 14, -4
  38 0002 85B0     		sub	sp, sp, #20
  39              		.cfi_def_cfa_offset 32
  45:source\asw/swc_control.c **** 	
  46:source\asw/swc_control.c **** 	/* USER CODE START CONTROL_calcControl_run */
  47:source\asw/swc_control.c ****     
  48:source\asw/swc_control.c ****     static SC_SPEED_data_t speedValue = SC_SPEED_INIT_DATA;
  49:source\asw/swc_control.c ****     static char asciiConvert[30];
  50:source\asw/swc_control.c ****     static RC_t res = RC_SUCCESS;
  51:source\asw/swc_control.c ****     /*
  52:source\asw/swc_control.c ****      * Updating the Alive Monitoring register. 
  53:source\asw/swc_control.c ****      * Bit Position 1 - RUNNABLE_CALCCONTROL
  54:source\asw/swc_control.c ****      **/
  55:source\asw/swc_control.c ****     WD_Alive(1);
  40              		.loc 1 55 0
  41 0004 0120     		movs	r0, #1
  42              	.LVL1:
  43 0006 FFF7FEFF 		bl	WD_Alive
  44              	.LVL2:
  45              	.LBB13:
  46              	.LBB14:
  47              		.file 2 ".\\source\\rte/sc_joystick.h"
   1:.\source\rte/sc_joystick.h **** 
   2:.\source\rte/sc_joystick.h **** 
   3:.\source\rte/sc_joystick.h **** /**
   4:.\source\rte/sc_joystick.h **** *  file    SC_JOYSTICK_signal.h
   5:.\source\rte/sc_joystick.h **** *
   6:.\source\rte/sc_joystick.h **** *  brief   signal base class for signal sc_joystick
   7:.\source\rte/sc_joystick.h **** *
   8:.\source\rte/sc_joystick.h **** *  author  Autogenerated, Peter Fromm       <peter.fromm@h-da.de>
   9:.\source\rte/sc_joystick.h **** *
  10:.\source\rte/sc_joystick.h **** *
  11:.\source\rte/sc_joystick.h **** */
  12:.\source\rte/sc_joystick.h **** 
ARM GAS  C:\Users\JASON\AppData\Local\Temp\ccNhv63R.s 			page 3


  13:.\source\rte/sc_joystick.h **** /*
  14:.\source\rte/sc_joystick.h **** * description: Signalclass representing the user input.
  15:.\source\rte/sc_joystick.h **** * name: sc_joystick
  16:.\source\rte/sc_joystick.h **** * shortname: joystick
  17:.\source\rte/sc_joystick.h **** */
  18:.\source\rte/sc_joystick.h **** 
  19:.\source\rte/sc_joystick.h **** #ifndef SC_JOYSTICK_SIGNAL_H_INCLUDED
  20:.\source\rte/sc_joystick.h **** #define SC_JOYSTICK_SIGNAL_H_INCLUDED
  21:.\source\rte/sc_joystick.h **** 
  22:.\source\rte/sc_joystick.h **** /*================================================[ public includes  ]=============================
  23:.\source\rte/sc_joystick.h **** #include "global.h"
  24:.\source\rte/sc_joystick.h **** #include "project.h"
  25:.\source\rte/sc_joystick.h **** #include "rte.h"
  26:.\source\rte/sc_joystick.h **** #include "rte_types.h"
  27:.\source\rte/sc_joystick.h **** 
  28:.\source\rte/sc_joystick.h **** #include "sc_joystick_type.h"
  29:.\source\rte/sc_joystick.h **** 
  30:.\source\rte/sc_joystick.h **** 
  31:.\source\rte/sc_joystick.h **** /**************************************************************************************************
  32:.\source\rte/sc_joystick.h **** /* The driver API block																						*/
  33:.\source\rte/sc_joystick.h **** /**************************************************************************************************
  34:.\source\rte/sc_joystick.h ****                                                                                                    
  35:.\source\rte/sc_joystick.h **** /**
  36:.\source\rte/sc_joystick.h ****  *  Definition of function types for driver interfaces.
  37:.\source\rte/sc_joystick.h ****  *  I-Port
  38:.\source\rte/sc_joystick.h ****  */
  39:.\source\rte/sc_joystick.h **** typedef RC_t (*SC_JOYSTICK_driverIn_t)(SC_JOYSTICK_data_t * const);
  40:.\source\rte/sc_joystick.h **** 
  41:.\source\rte/sc_joystick.h **** /**
  42:.\source\rte/sc_joystick.h ****  *  Definition of function types for driver interfaces.
  43:.\source\rte/sc_joystick.h ****  *  O-Port
  44:.\source\rte/sc_joystick.h ****  */
  45:.\source\rte/sc_joystick.h **** typedef RC_t (*SC_JOYSTICK_driverOut_t)( const SC_JOYSTICK_data_t * const);
  46:.\source\rte/sc_joystick.h **** 
  47:.\source\rte/sc_joystick.h **** 
  48:.\source\rte/sc_joystick.h **** /**************************************************************************************************
  49:.\source\rte/sc_joystick.h **** /* The signal configuration API block																				*/
  50:.\source\rte/sc_joystick.h **** /**************************************************************************************************
  51:.\source\rte/sc_joystick.h **** 
  52:.\source\rte/sc_joystick.h **** /**
  53:.\source\rte/sc_joystick.h ****  * Instances of the struct SC_JOYSTICK_cfg_t represent the signal object configuration.
  54:.\source\rte/sc_joystick.h ****  */
  55:.\source\rte/sc_joystick.h **** struct SC_JOYSTICK_cfg_s
  56:.\source\rte/sc_joystick.h **** {
  57:.\source\rte/sc_joystick.h ****     /**
  58:.\source\rte/sc_joystick.h ****      * Function pointer to the input driver
  59:.\source\rte/sc_joystick.h ****      */
  60:.\source\rte/sc_joystick.h ****     SC_JOYSTICK_driverIn_t const inDriver;
  61:.\source\rte/sc_joystick.h **** 
  62:.\source\rte/sc_joystick.h ****     /**
  63:.\source\rte/sc_joystick.h ****      * Function pointer to the output driver table
  64:.\source\rte/sc_joystick.h ****      */
  65:.\source\rte/sc_joystick.h ****    SC_JOYSTICK_driverOut_t const outDriver;
  66:.\source\rte/sc_joystick.h ****    
  67:.\source\rte/sc_joystick.h ****     /**
  68:.\source\rte/sc_joystick.h ****      * Event onUpdate
  69:.\source\rte/sc_joystick.h ****      */
ARM GAS  C:\Users\JASON\AppData\Local\Temp\ccNhv63R.s 			page 4


  70:.\source\rte/sc_joystick.h ****     EventMaskType const evOnUpdate;
  71:.\source\rte/sc_joystick.h ****     
  72:.\source\rte/sc_joystick.h ****     
  73:.\source\rte/sc_joystick.h ****     /**
  74:.\source\rte/sc_joystick.h ****      * Event onError
  75:.\source\rte/sc_joystick.h ****      */
  76:.\source\rte/sc_joystick.h ****     EventMaskType const evOnError;
  77:.\source\rte/sc_joystick.h ****     
  78:.\source\rte/sc_joystick.h ****     /**
  79:.\source\rte/sc_joystick.h ****      * Task Count onUpdate
  80:.\source\rte/sc_joystick.h ****      */
  81:.\source\rte/sc_joystick.h ****     size_t const onUpdateTaskCount;
  82:.\source\rte/sc_joystick.h **** 
  83:.\source\rte/sc_joystick.h ****     /**
  84:.\source\rte/sc_joystick.h ****      * Task List onUpdate
  85:.\source\rte/sc_joystick.h ****      */
  86:.\source\rte/sc_joystick.h ****     TaskTypeArray* const onUpdateTasks;
  87:.\source\rte/sc_joystick.h ****     
  88:.\source\rte/sc_joystick.h ****     /**
  89:.\source\rte/sc_joystick.h ****      * Task Count onError
  90:.\source\rte/sc_joystick.h ****      */
  91:.\source\rte/sc_joystick.h ****     size_t const onErrorTaskCount;
  92:.\source\rte/sc_joystick.h **** 
  93:.\source\rte/sc_joystick.h ****     /**
  94:.\source\rte/sc_joystick.h ****      * Task List onError
  95:.\source\rte/sc_joystick.h ****      */
  96:.\source\rte/sc_joystick.h ****     TaskTypeArray* const onErrorTasks;
  97:.\source\rte/sc_joystick.h **** 	
  98:.\source\rte/sc_joystick.h **** 	
  99:.\source\rte/sc_joystick.h **** 	/**
 100:.\source\rte/sc_joystick.h **** 	 * Ressourse is active? We need an additional boolean as a ressource value 0 is valid.
 101:.\source\rte/sc_joystick.h **** 	 */
 102:.\source\rte/sc_joystick.h **** 	 boolean_t const resourceActive;
 103:.\source\rte/sc_joystick.h **** 	 
 104:.\source\rte/sc_joystick.h **** 	/**
 105:.\source\rte/sc_joystick.h **** 	 * Ressourse 
 106:.\source\rte/sc_joystick.h **** 	 */
 107:.\source\rte/sc_joystick.h **** 	 ResourceType const resource;
 108:.\source\rte/sc_joystick.h **** 
 109:.\source\rte/sc_joystick.h **** };                                                                                                 
 110:.\source\rte/sc_joystick.h **** typedef const struct SC_JOYSTICK_cfg_s SC_JOYSTICK_cfg_t;
 111:.\source\rte/sc_joystick.h ****                               
 112:.\source\rte/sc_joystick.h **** /**************************************************************************************************
 113:.\source\rte/sc_joystick.h **** /* The data interface block																							*/
 114:.\source\rte/sc_joystick.h **** /**************************************************************************************************
 115:.\source\rte/sc_joystick.h **** 
 116:.\source\rte/sc_joystick.h ****                                                                                                    
 117:.\source\rte/sc_joystick.h **** 							  
 118:.\source\rte/sc_joystick.h **** /**
 119:.\source\rte/sc_joystick.h ****  * Instances of the struct SC_JOYSTICK_t represent the signal objects.
 120:.\source\rte/sc_joystick.h ****  * A signal object contains the current application value 'value' as well as relevant meta data.
 121:.\source\rte/sc_joystick.h ****  */
 122:.\source\rte/sc_joystick.h **** struct SC_JOYSTICK_s
 123:.\source\rte/sc_joystick.h **** {                                                                                                  
 124:.\source\rte/sc_joystick.h **** 
 125:.\source\rte/sc_joystick.h **** 	/**
 126:.\source\rte/sc_joystick.h **** 	 * Data buffer for the application value
ARM GAS  C:\Users\JASON\AppData\Local\Temp\ccNhv63R.s 			page 5


 127:.\source\rte/sc_joystick.h **** 	 */
 128:.\source\rte/sc_joystick.h ****     SC_JOYSTICK_data_t value;
 129:.\source\rte/sc_joystick.h **** 
 130:.\source\rte/sc_joystick.h ****     /**
 131:.\source\rte/sc_joystick.h ****      * Current signal status
 132:.\source\rte/sc_joystick.h ****      */
 133:.\source\rte/sc_joystick.h ****     RTE_signalStatus_t status;
 134:.\source\rte/sc_joystick.h **** 
 135:.\source\rte/sc_joystick.h ****     /**
 136:.\source\rte/sc_joystick.h ****      * Current age of the signal (in calling cycles)
 137:.\source\rte/sc_joystick.h ****      */
 138:.\source\rte/sc_joystick.h ****     uint32_t age;
 139:.\source\rte/sc_joystick.h **** 
 140:.\source\rte/sc_joystick.h ****     /**
 141:.\source\rte/sc_joystick.h ****      * Pointer to the signal configuration
 142:.\source\rte/sc_joystick.h ****      */
 143:.\source\rte/sc_joystick.h **** 	const SC_JOYSTICK_cfg_t * const    pSigCfg;
 144:.\source\rte/sc_joystick.h **** 
 145:.\source\rte/sc_joystick.h **** };                                                                                                 
 146:.\source\rte/sc_joystick.h **** typedef struct SC_JOYSTICK_s SC_JOYSTICK_t;
 147:.\source\rte/sc_joystick.h **** 
 148:.\source\rte/sc_joystick.h **** /**************************************************************************************************
 149:.\source\rte/sc_joystick.h **** /* Signal initialisation   																							*/
 150:.\source\rte/sc_joystick.h **** /**************************************************************************************************
 151:.\source\rte/sc_joystick.h **** 
 152:.\source\rte/sc_joystick.h **** /**
 153:.\source\rte/sc_joystick.h ****  * Initializes a signal instance with a passed init value.
 154:.\source\rte/sc_joystick.h ****  * Depending on the configured conversion or scaling function the raw_value will be calculated.
 155:.\source\rte/sc_joystick.h ****  * Signal status will change from RTE_SIGNALSTATUS_STARTUP to RTE_SIGNALSTATUS_INITIALIZED.
 156:.\source\rte/sc_joystick.h ****  *
 157:.\source\rte/sc_joystick.h ****  * @param  SC_JOYSTICK_t * const signal: Pointer to the signal object which will be initialised
 158:.\source\rte/sc_joystick.h ****  * @param const sc_joystick_data_t * const value: Pointer to initial value of the application data
 159:.\source\rte/sc_joystick.h ****  * @return RC_t: standard return code, currently only RC_SUCCESS
 160:.\source\rte/sc_joystick.h ****  *
 161:.\source\rte/sc_joystick.h ****  **/
 162:.\source\rte/sc_joystick.h **** inline RC_t RTE_SC_JOYSTICK_init( SC_JOYSTICK_t * const signal, const SC_JOYSTICK_data_t * const va
 163:.\source\rte/sc_joystick.h **** {                                                                                                  
 164:.\source\rte/sc_joystick.h **** 
 165:.\source\rte/sc_joystick.h ****    RC_t ret = RC_SUCCESS;
 166:.\source\rte/sc_joystick.h **** 
 167:.\source\rte/sc_joystick.h ****    //Set value and raw value
 168:.\source\rte/sc_joystick.h ****    signal->value  = *value;
 169:.\source\rte/sc_joystick.h ****    signal->age    = 0;
 170:.\source\rte/sc_joystick.h ****    signal->status = RTE_SIGNALSTATUS_INITIALIZED;
 171:.\source\rte/sc_joystick.h **** 
 172:.\source\rte/sc_joystick.h ****    return ret;
 173:.\source\rte/sc_joystick.h **** }
 174:.\source\rte/sc_joystick.h **** 
 175:.\source\rte/sc_joystick.h **** /**************************************************************************************************
 176:.\source\rte/sc_joystick.h **** /* Status and timeout control																						*/
 177:.\source\rte/sc_joystick.h **** /**************************************************************************************************
 178:.\source\rte/sc_joystick.h **** 
 179:.\source\rte/sc_joystick.h **** /**
 180:.\source\rte/sc_joystick.h ****  *  Returns the current signal status of the passed signal instance.
 181:.\source\rte/sc_joystick.h ****  *
 182:.\source\rte/sc_joystick.h ****  * @param  SC_JOYSTICK_t * const signal: Pointer to the signal object
 183:.\source\rte/sc_joystick.h ****  * @return  sig_status_t: The current signal status
ARM GAS  C:\Users\JASON\AppData\Local\Temp\ccNhv63R.s 			page 6


 184:.\source\rte/sc_joystick.h ****  *
 185:.\source\rte/sc_joystick.h ****  **/
 186:.\source\rte/sc_joystick.h **** inline RTE_signalStatus_t RTE_SC_JOYSTICK_getStatus( const SC_JOYSTICK_t * const signal )
 187:.\source\rte/sc_joystick.h **** {
 188:.\source\rte/sc_joystick.h ****    return signal->status;
 189:.\source\rte/sc_joystick.h **** }
 190:.\source\rte/sc_joystick.h **** 
 191:.\source\rte/sc_joystick.h **** 
 192:.\source\rte/sc_joystick.h **** /**
 193:.\source\rte/sc_joystick.h ****  *  Sets a new signal status of the passed signal instance by passing the new status.
 194:.\source\rte/sc_joystick.h ****  *
 195:.\source\rte/sc_joystick.h ****  * @param  SC_JOYSTICK_t * const signal: Pointer to the signal object
 196:.\source\rte/sc_joystick.h ****  * @param  const sig_status_t status: New signal status
 197:.\source\rte/sc_joystick.h ****  * @return RC_t: standard return code, currently only RC_SUCCESS
 198:.\source\rte/sc_joystick.h ****  *
 199:.\source\rte/sc_joystick.h ****  */
 200:.\source\rte/sc_joystick.h **** inline RC_t RTE_SC_JOYSTICK_setStatus( SC_JOYSTICK_t * const signal, const RTE_signalStatus_t statu
 201:.\source\rte/sc_joystick.h **** {
 202:.\source\rte/sc_joystick.h ****    signal->status = status;
 203:.\source\rte/sc_joystick.h ****    size_t taskNum=0;
 204:.\source\rte/sc_joystick.h ****    
 205:.\source\rte/sc_joystick.h ****    //Fire error events in case of invalid state
 206:.\source\rte/sc_joystick.h ****    if (signal->status == RTE_SIGNALSTATUS_INVALID)
 207:.\source\rte/sc_joystick.h ****    {
 208:.\source\rte/sc_joystick.h **** 	    //Pointer to the Taskarray, containing the tasks receiving the onUpdate events
 209:.\source\rte/sc_joystick.h **** 		TaskTypeArray* pTaskArray = signal->pSigCfg->onErrorTasks;
 210:.\source\rte/sc_joystick.h **** 
 211:.\source\rte/sc_joystick.h **** 		if (NULL!=signal->pSigCfg->evOnError && NULL != pTaskArray){
 212:.\source\rte/sc_joystick.h **** 			for( taskNum=0 ; taskNum < signal->pSigCfg->onErrorTaskCount ;taskNum++){
 213:.\source\rte/sc_joystick.h **** 				TaskType task = (*pTaskArray)[taskNum];
 214:.\source\rte/sc_joystick.h **** 				SetEvent( task, signal->pSigCfg->evOnError);
 215:.\source\rte/sc_joystick.h **** 			}
 216:.\source\rte/sc_joystick.h **** 		}
 217:.\source\rte/sc_joystick.h ****    }
 218:.\source\rte/sc_joystick.h ****    
 219:.\source\rte/sc_joystick.h ****    return RC_SUCCESS;
 220:.\source\rte/sc_joystick.h **** }
 221:.\source\rte/sc_joystick.h **** 
 222:.\source\rte/sc_joystick.h **** 
 223:.\source\rte/sc_joystick.h **** /**
 224:.\source\rte/sc_joystick.h ****  * Returns the count of refreshing trials (refresh, set or set_raw) that failed.
 225:.\source\rte/sc_joystick.h ****  * Prerquisite: The signal is refreshed cyclically
 226:.\source\rte/sc_joystick.h ****  *
 227:.\source\rte/sc_joystick.h ****  * @param  SC_JOYSTICK_t * const signal: Pointer to the signal object
 228:.\source\rte/sc_joystick.h ****  * @return uint32_t: Number of cycles since the signal has been updated for the last time
 229:.\source\rte/sc_joystick.h ****  */
 230:.\source\rte/sc_joystick.h **** inline uint32_t RTE_SC_JOYSTICK_getAge( const SC_JOYSTICK_t * const signal )
 231:.\source\rte/sc_joystick.h **** {
 232:.\source\rte/sc_joystick.h ****    return signal->age;
 233:.\source\rte/sc_joystick.h **** }
 234:.\source\rte/sc_joystick.h **** 
 235:.\source\rte/sc_joystick.h **** /**
 236:.\source\rte/sc_joystick.h ****  * Should be called by application or driver if no new value can be provided.
 237:.\source\rte/sc_joystick.h ****  * @param  SC_JOYSTICK_t * const signal: Pointer to the signal object
 238:.\source\rte/sc_joystick.h ****  * @param uint32_t increment: incrementvalue, typically in [ms]
 239:.\source\rte/sc_joystick.h ****  * @return void
 240:.\source\rte/sc_joystick.h ****  */
ARM GAS  C:\Users\JASON\AppData\Local\Temp\ccNhv63R.s 			page 7


 241:.\source\rte/sc_joystick.h **** inline void RTE_SC_JOYSTICK_incAge(  SC_JOYSTICK_t * const signal , uint32_t increment)
 242:.\source\rte/sc_joystick.h **** {
 243:.\source\rte/sc_joystick.h **** 	   //Hack....
 244:.\source\rte/sc_joystick.h **** 	   if ( 0xFFFF0000 > (signal->age + increment) )
 245:.\source\rte/sc_joystick.h **** 	   {
 246:.\source\rte/sc_joystick.h **** 	      signal->age += increment;
 247:.\source\rte/sc_joystick.h **** 	   }
 248:.\source\rte/sc_joystick.h **** }
 249:.\source\rte/sc_joystick.h **** 
 250:.\source\rte/sc_joystick.h **** 
 251:.\source\rte/sc_joystick.h **** /**************************************************************************************************
 252:.\source\rte/sc_joystick.h **** /* Application Data read/write Interface																			*/
 253:.\source\rte/sc_joystick.h **** /**************************************************************************************************
 254:.\source\rte/sc_joystick.h **** 
 255:.\source\rte/sc_joystick.h **** /**
 256:.\source\rte/sc_joystick.h ****  * Returns the current application value of the passed signal instance.
 257:.\source\rte/sc_joystick.h ****  *
 258:.\source\rte/sc_joystick.h ****  * @param  SC_JOYSTICK_t * const signal: Pointer to the signal object
 259:.\source\rte/sc_joystick.h ****  * @return sc_joystick_data_t: current value of the application data buffer
 260:.\source\rte/sc_joystick.h ****  *
 261:.\source\rte/sc_joystick.h ****  **/
 262:.\source\rte/sc_joystick.h **** inline SC_JOYSTICK_data_t RTE_SC_JOYSTICK_get( const SC_JOYSTICK_t * const signal )
 263:.\source\rte/sc_joystick.h **** {               
 264:.\source\rte/sc_joystick.h ****    //Todo: Critical region cannot be protected using return values																						
 265:.\source\rte/sc_joystick.h ****    return signal->value;                                                                           
  48              		.loc 2 265 0
  49 000a 2D4B     		ldr	r3, .L12
  50 000c 1B88     		ldrh	r3, [r3]
  51 000e ADF80830 		strh	r3, [sp, #8]	@ movhi
  52 0012 ADF80030 		strh	r3, [sp]	@ movhi
  53              	.LVL3:
  54              	.LBE14:
  55              	.LBE13:
  56:source\asw/swc_control.c ****     /**
  57:source\asw/swc_control.c ****      * Error Handling
  58:source\asw/swc_control.c ****      **/
  59:source\asw/swc_control.c ****     if(res != RC_SUCCESS)
  60:source\asw/swc_control.c ****     {
  61:source\asw/swc_control.c ****         UART_LOG_PutString("Watchdog Status register update failed. \n");   
  62:source\asw/swc_control.c ****     }
  63:source\asw/swc_control.c ****     
  64:source\asw/swc_control.c ****     /**
  65:source\asw/swc_control.c ****      * Translating joystick value into speed value as 
  66:source\asw/swc_control.c ****      * speed value = 2 x joystick value along positive y-direction (front).
  67:source\asw/swc_control.c ****      * speed value = 0 along negative y-direction (back).
  68:source\asw/swc_control.c ****      **/
  69:source\asw/swc_control.c ****     if(RTE_SC_JOYSTICK_get(&SO_JOYSTICK_signal).Joystick_Y > 0)
  56              		.loc 1 69 0
  57 0016 43F30723 		sbfx	r3, r3, #8, #8
  58 001a 002B     		cmp	r3, #0
  59 001c 0BDD     		ble	.L2
  60              	.LVL4:
  61              	.LBB15:
  62              	.LBB16:
  63              		.loc 2 265 0
  64 001e 284B     		ldr	r3, .L12
  65 0020 1B88     		ldrh	r3, [r3]
ARM GAS  C:\Users\JASON\AppData\Local\Temp\ccNhv63R.s 			page 8


  66 0022 ADF80C30 		strh	r3, [sp, #12]	@ movhi
  67 0026 ADF80430 		strh	r3, [sp, #4]	@ movhi
  68              	.LVL5:
  69              	.LBE16:
  70              	.LBE15:
  70:source\asw/swc_control.c ****     {
  71:source\asw/swc_control.c ****         speedValue.speed = 2 * (RTE_SC_JOYSTICK_get(&SO_JOYSTICK_signal).Joystick_Y);
  71              		.loc 1 71 0
  72 002a 43F30723 		sbfx	r3, r3, #8, #8
  73 002e 5B00     		lsls	r3, r3, #1
  74 0030 244A     		ldr	r2, .L12+4
  75 0032 1370     		strb	r3, [r2]
  76 0034 02E0     		b	.L3
  77              	.L2:
  72:source\asw/swc_control.c ****     }
  73:source\asw/swc_control.c ****     else
  74:source\asw/swc_control.c ****     {
  75:source\asw/swc_control.c ****         speedValue.speed = 0;
  78              		.loc 1 75 0
  79 0036 0022     		movs	r2, #0
  80 0038 224B     		ldr	r3, .L12+4
  81 003a 1A70     		strb	r2, [r3]
  82              	.L3:
  76:source\asw/swc_control.c ****     }
  77:source\asw/swc_control.c ****     
  78:source\asw/swc_control.c ****     /**
  79:source\asw/swc_control.c ****      * Test Case for alive monitoring.
  80:source\asw/swc_control.c ****      * RTE_SC_SPEED_set(..) is when updates the speed also triggers the event 'ev_speed_onData'
  81:source\asw/swc_control.c ****      * that invokes the runnable 'BRAKELIGHT_setBrakeLight_run'.
  82:source\asw/swc_control.c ****      * However, to test the watchdog timer, the speed is not set and the runnable is not called.
  83:source\asw/swc_control.c ****      * Therefore, the 3rd bit of the alive monitoring status register is not set.
  84:source\asw/swc_control.c ****      * (Runnable 'BRAKELIGHT_setBrakeLight_run' needs the event 'ev_speed_onData' to execute).
  85:source\asw/swc_control.c ****      * Therefore, a watchdog timeout happens and the system restarts after this reset.
  86:source\asw/swc_control.c ****      **/
  87:source\asw/swc_control.c ****     if(wdt_test != TRUE)
  83              		.loc 1 87 0
  84 003c 224B     		ldr	r3, .L12+8
  85 003e 1B78     		ldrb	r3, [r3]	@ zero_extendqisi2
  86 0040 012B     		cmp	r3, #1
  87 0042 2BD0     		beq	.L4
  88              	.LVL6:
  89 0044 1F4B     		ldr	r3, .L12+4
  90 0046 1978     		ldrb	r1, [r3]	@ zero_extendqisi2
  91              	.LVL7:
  92              	.LBB17:
  93              	.LBB18:
  94              		.file 3 ".\\source\\rte/sc_speed.h"
   1:.\source\rte/sc_speed.h **** 
   2:.\source\rte/sc_speed.h **** 
   3:.\source\rte/sc_speed.h **** /**
   4:.\source\rte/sc_speed.h **** *  file    SC_SPEED_signal.h
   5:.\source\rte/sc_speed.h **** *
   6:.\source\rte/sc_speed.h **** *  brief   signal base class for signal sc_speed
   7:.\source\rte/sc_speed.h **** *
   8:.\source\rte/sc_speed.h **** *  author  Autogenerated, Peter Fromm       <peter.fromm@h-da.de>
   9:.\source\rte/sc_speed.h **** *
  10:.\source\rte/sc_speed.h **** *
ARM GAS  C:\Users\JASON\AppData\Local\Temp\ccNhv63R.s 			page 9


  11:.\source\rte/sc_speed.h **** */
  12:.\source\rte/sc_speed.h **** 
  13:.\source\rte/sc_speed.h **** /*
  14:.\source\rte/sc_speed.h **** * description: Signalclass representing the speed.
  15:.\source\rte/sc_speed.h **** * name: sc_speed
  16:.\source\rte/sc_speed.h **** * shortname: speed
  17:.\source\rte/sc_speed.h **** */
  18:.\source\rte/sc_speed.h **** 
  19:.\source\rte/sc_speed.h **** #ifndef SC_SPEED_SIGNAL_H_INCLUDED
  20:.\source\rte/sc_speed.h **** #define SC_SPEED_SIGNAL_H_INCLUDED
  21:.\source\rte/sc_speed.h **** 
  22:.\source\rte/sc_speed.h **** /*================================================[ public includes  ]=============================
  23:.\source\rte/sc_speed.h **** #include "global.h"
  24:.\source\rte/sc_speed.h **** #include "project.h"
  25:.\source\rte/sc_speed.h **** #include "rte.h"
  26:.\source\rte/sc_speed.h **** #include "rte_types.h"
  27:.\source\rte/sc_speed.h **** 
  28:.\source\rte/sc_speed.h **** #include "sc_speed_type.h"
  29:.\source\rte/sc_speed.h **** 
  30:.\source\rte/sc_speed.h **** 
  31:.\source\rte/sc_speed.h **** /**************************************************************************************************
  32:.\source\rte/sc_speed.h **** /* The driver API block																						*/
  33:.\source\rte/sc_speed.h **** /**************************************************************************************************
  34:.\source\rte/sc_speed.h ****                                                                                                    
  35:.\source\rte/sc_speed.h **** /**
  36:.\source\rte/sc_speed.h ****  *  Definition of function types for driver interfaces.
  37:.\source\rte/sc_speed.h ****  *  I-Port
  38:.\source\rte/sc_speed.h ****  */
  39:.\source\rte/sc_speed.h **** typedef RC_t (*SC_SPEED_driverIn_t)(SC_SPEED_data_t * const);
  40:.\source\rte/sc_speed.h **** 
  41:.\source\rte/sc_speed.h **** /**
  42:.\source\rte/sc_speed.h ****  *  Definition of function types for driver interfaces.
  43:.\source\rte/sc_speed.h ****  *  O-Port
  44:.\source\rte/sc_speed.h ****  */
  45:.\source\rte/sc_speed.h **** typedef RC_t (*SC_SPEED_driverOut_t)( const SC_SPEED_data_t * const);
  46:.\source\rte/sc_speed.h **** 
  47:.\source\rte/sc_speed.h **** 
  48:.\source\rte/sc_speed.h **** /**************************************************************************************************
  49:.\source\rte/sc_speed.h **** /* The signal configuration API block																				*/
  50:.\source\rte/sc_speed.h **** /**************************************************************************************************
  51:.\source\rte/sc_speed.h **** 
  52:.\source\rte/sc_speed.h **** /**
  53:.\source\rte/sc_speed.h ****  * Instances of the struct SC_SPEED_cfg_t represent the signal object configuration.
  54:.\source\rte/sc_speed.h ****  */
  55:.\source\rte/sc_speed.h **** struct SC_SPEED_cfg_s
  56:.\source\rte/sc_speed.h **** {
  57:.\source\rte/sc_speed.h ****     /**
  58:.\source\rte/sc_speed.h ****      * Function pointer to the input driver
  59:.\source\rte/sc_speed.h ****      */
  60:.\source\rte/sc_speed.h ****     SC_SPEED_driverIn_t const inDriver;
  61:.\source\rte/sc_speed.h **** 
  62:.\source\rte/sc_speed.h ****     /**
  63:.\source\rte/sc_speed.h ****      * Function pointer to the output driver table
  64:.\source\rte/sc_speed.h ****      */
  65:.\source\rte/sc_speed.h ****    SC_SPEED_driverOut_t const outDriver;
  66:.\source\rte/sc_speed.h ****    
  67:.\source\rte/sc_speed.h ****     /**
ARM GAS  C:\Users\JASON\AppData\Local\Temp\ccNhv63R.s 			page 10


  68:.\source\rte/sc_speed.h ****      * Event onUpdate
  69:.\source\rte/sc_speed.h ****      */
  70:.\source\rte/sc_speed.h ****     EventMaskType const evOnUpdate;
  71:.\source\rte/sc_speed.h ****     
  72:.\source\rte/sc_speed.h ****     
  73:.\source\rte/sc_speed.h ****     /**
  74:.\source\rte/sc_speed.h ****      * Event onError
  75:.\source\rte/sc_speed.h ****      */
  76:.\source\rte/sc_speed.h ****     EventMaskType const evOnError;
  77:.\source\rte/sc_speed.h ****     
  78:.\source\rte/sc_speed.h ****     /**
  79:.\source\rte/sc_speed.h ****      * Task Count onUpdate
  80:.\source\rte/sc_speed.h ****      */
  81:.\source\rte/sc_speed.h ****     size_t const onUpdateTaskCount;
  82:.\source\rte/sc_speed.h **** 
  83:.\source\rte/sc_speed.h ****     /**
  84:.\source\rte/sc_speed.h ****      * Task List onUpdate
  85:.\source\rte/sc_speed.h ****      */
  86:.\source\rte/sc_speed.h ****     TaskTypeArray* const onUpdateTasks;
  87:.\source\rte/sc_speed.h ****     
  88:.\source\rte/sc_speed.h ****     /**
  89:.\source\rte/sc_speed.h ****      * Task Count onError
  90:.\source\rte/sc_speed.h ****      */
  91:.\source\rte/sc_speed.h ****     size_t const onErrorTaskCount;
  92:.\source\rte/sc_speed.h **** 
  93:.\source\rte/sc_speed.h ****     /**
  94:.\source\rte/sc_speed.h ****      * Task List onError
  95:.\source\rte/sc_speed.h ****      */
  96:.\source\rte/sc_speed.h ****     TaskTypeArray* const onErrorTasks;
  97:.\source\rte/sc_speed.h **** 	
  98:.\source\rte/sc_speed.h **** 	
  99:.\source\rte/sc_speed.h **** 	/**
 100:.\source\rte/sc_speed.h **** 	 * Ressourse is active? We need an additional boolean as a ressource value 0 is valid.
 101:.\source\rte/sc_speed.h **** 	 */
 102:.\source\rte/sc_speed.h **** 	 boolean_t const resourceActive;
 103:.\source\rte/sc_speed.h **** 	 
 104:.\source\rte/sc_speed.h **** 	/**
 105:.\source\rte/sc_speed.h **** 	 * Ressourse 
 106:.\source\rte/sc_speed.h **** 	 */
 107:.\source\rte/sc_speed.h **** 	 ResourceType const resource;
 108:.\source\rte/sc_speed.h **** 
 109:.\source\rte/sc_speed.h **** };                                                                                                 
 110:.\source\rte/sc_speed.h **** typedef const struct SC_SPEED_cfg_s SC_SPEED_cfg_t;
 111:.\source\rte/sc_speed.h ****                               
 112:.\source\rte/sc_speed.h **** /**************************************************************************************************
 113:.\source\rte/sc_speed.h **** /* The data interface block																							*/
 114:.\source\rte/sc_speed.h **** /**************************************************************************************************
 115:.\source\rte/sc_speed.h **** 
 116:.\source\rte/sc_speed.h ****                                                                                                    
 117:.\source\rte/sc_speed.h **** 							  
 118:.\source\rte/sc_speed.h **** /**
 119:.\source\rte/sc_speed.h ****  * Instances of the struct SC_SPEED_t represent the signal objects.
 120:.\source\rte/sc_speed.h ****  * A signal object contains the current application value 'value' as well as relevant meta data.
 121:.\source\rte/sc_speed.h ****  */
 122:.\source\rte/sc_speed.h **** struct SC_SPEED_s
 123:.\source\rte/sc_speed.h **** {                                                                                                  
 124:.\source\rte/sc_speed.h **** 
ARM GAS  C:\Users\JASON\AppData\Local\Temp\ccNhv63R.s 			page 11


 125:.\source\rte/sc_speed.h **** 	/**
 126:.\source\rte/sc_speed.h **** 	 * Data buffer for the application value
 127:.\source\rte/sc_speed.h **** 	 */
 128:.\source\rte/sc_speed.h ****     SC_SPEED_data_t value;
 129:.\source\rte/sc_speed.h **** 
 130:.\source\rte/sc_speed.h ****     /**
 131:.\source\rte/sc_speed.h ****      * Current signal status
 132:.\source\rte/sc_speed.h ****      */
 133:.\source\rte/sc_speed.h ****     RTE_signalStatus_t status;
 134:.\source\rte/sc_speed.h **** 
 135:.\source\rte/sc_speed.h ****     /**
 136:.\source\rte/sc_speed.h ****      * Current age of the signal (in calling cycles)
 137:.\source\rte/sc_speed.h ****      */
 138:.\source\rte/sc_speed.h ****     uint32_t age;
 139:.\source\rte/sc_speed.h **** 
 140:.\source\rte/sc_speed.h ****     /**
 141:.\source\rte/sc_speed.h ****      * Pointer to the signal configuration
 142:.\source\rte/sc_speed.h ****      */
 143:.\source\rte/sc_speed.h **** 	const SC_SPEED_cfg_t * const    pSigCfg;
 144:.\source\rte/sc_speed.h **** 
 145:.\source\rte/sc_speed.h **** };                                                                                                 
 146:.\source\rte/sc_speed.h **** typedef struct SC_SPEED_s SC_SPEED_t;
 147:.\source\rte/sc_speed.h **** 
 148:.\source\rte/sc_speed.h **** /**************************************************************************************************
 149:.\source\rte/sc_speed.h **** /* Signal initialisation   																							*/
 150:.\source\rte/sc_speed.h **** /**************************************************************************************************
 151:.\source\rte/sc_speed.h **** 
 152:.\source\rte/sc_speed.h **** /**
 153:.\source\rte/sc_speed.h ****  * Initializes a signal instance with a passed init value.
 154:.\source\rte/sc_speed.h ****  * Depending on the configured conversion or scaling function the raw_value will be calculated.
 155:.\source\rte/sc_speed.h ****  * Signal status will change from RTE_SIGNALSTATUS_STARTUP to RTE_SIGNALSTATUS_INITIALIZED.
 156:.\source\rte/sc_speed.h ****  *
 157:.\source\rte/sc_speed.h ****  * @param  SC_SPEED_t * const signal: Pointer to the signal object which will be initialised
 158:.\source\rte/sc_speed.h ****  * @param const sc_speed_data_t * const value: Pointer to initial value of the application data
 159:.\source\rte/sc_speed.h ****  * @return RC_t: standard return code, currently only RC_SUCCESS
 160:.\source\rte/sc_speed.h ****  *
 161:.\source\rte/sc_speed.h ****  **/
 162:.\source\rte/sc_speed.h **** inline RC_t RTE_SC_SPEED_init( SC_SPEED_t * const signal, const SC_SPEED_data_t * const value )
 163:.\source\rte/sc_speed.h **** {                                                                                                  
 164:.\source\rte/sc_speed.h **** 
 165:.\source\rte/sc_speed.h ****    RC_t ret = RC_SUCCESS;
 166:.\source\rte/sc_speed.h **** 
 167:.\source\rte/sc_speed.h ****    //Set value and raw value
 168:.\source\rte/sc_speed.h ****    signal->value  = *value;
 169:.\source\rte/sc_speed.h ****    signal->age    = 0;
 170:.\source\rte/sc_speed.h ****    signal->status = RTE_SIGNALSTATUS_INITIALIZED;
 171:.\source\rte/sc_speed.h **** 
 172:.\source\rte/sc_speed.h ****    return ret;
 173:.\source\rte/sc_speed.h **** }
 174:.\source\rte/sc_speed.h **** 
 175:.\source\rte/sc_speed.h **** /**************************************************************************************************
 176:.\source\rte/sc_speed.h **** /* Status and timeout control																						*/
 177:.\source\rte/sc_speed.h **** /**************************************************************************************************
 178:.\source\rte/sc_speed.h **** 
 179:.\source\rte/sc_speed.h **** /**
 180:.\source\rte/sc_speed.h ****  *  Returns the current signal status of the passed signal instance.
 181:.\source\rte/sc_speed.h ****  *
ARM GAS  C:\Users\JASON\AppData\Local\Temp\ccNhv63R.s 			page 12


 182:.\source\rte/sc_speed.h ****  * @param  SC_SPEED_t * const signal: Pointer to the signal object
 183:.\source\rte/sc_speed.h ****  * @return  sig_status_t: The current signal status
 184:.\source\rte/sc_speed.h ****  *
 185:.\source\rte/sc_speed.h ****  **/
 186:.\source\rte/sc_speed.h **** inline RTE_signalStatus_t RTE_SC_SPEED_getStatus( const SC_SPEED_t * const signal )
 187:.\source\rte/sc_speed.h **** {
 188:.\source\rte/sc_speed.h ****    return signal->status;
 189:.\source\rte/sc_speed.h **** }
 190:.\source\rte/sc_speed.h **** 
 191:.\source\rte/sc_speed.h **** 
 192:.\source\rte/sc_speed.h **** /**
 193:.\source\rte/sc_speed.h ****  *  Sets a new signal status of the passed signal instance by passing the new status.
 194:.\source\rte/sc_speed.h ****  *
 195:.\source\rte/sc_speed.h ****  * @param  SC_SPEED_t * const signal: Pointer to the signal object
 196:.\source\rte/sc_speed.h ****  * @param  const sig_status_t status: New signal status
 197:.\source\rte/sc_speed.h ****  * @return RC_t: standard return code, currently only RC_SUCCESS
 198:.\source\rte/sc_speed.h ****  *
 199:.\source\rte/sc_speed.h ****  */
 200:.\source\rte/sc_speed.h **** inline RC_t RTE_SC_SPEED_setStatus( SC_SPEED_t * const signal, const RTE_signalStatus_t status )
 201:.\source\rte/sc_speed.h **** {
 202:.\source\rte/sc_speed.h ****    signal->status = status;
 203:.\source\rte/sc_speed.h ****    size_t taskNum=0;
 204:.\source\rte/sc_speed.h ****    
 205:.\source\rte/sc_speed.h ****    //Fire error events in case of invalid state
 206:.\source\rte/sc_speed.h ****    if (signal->status == RTE_SIGNALSTATUS_INVALID)
 207:.\source\rte/sc_speed.h ****    {
 208:.\source\rte/sc_speed.h **** 	    //Pointer to the Taskarray, containing the tasks receiving the onUpdate events
 209:.\source\rte/sc_speed.h **** 		TaskTypeArray* pTaskArray = signal->pSigCfg->onErrorTasks;
 210:.\source\rte/sc_speed.h **** 
 211:.\source\rte/sc_speed.h **** 		if (NULL!=signal->pSigCfg->evOnError && NULL != pTaskArray){
 212:.\source\rte/sc_speed.h **** 			for( taskNum=0 ; taskNum < signal->pSigCfg->onErrorTaskCount ;taskNum++){
 213:.\source\rte/sc_speed.h **** 				TaskType task = (*pTaskArray)[taskNum];
 214:.\source\rte/sc_speed.h **** 				SetEvent( task, signal->pSigCfg->evOnError);
 215:.\source\rte/sc_speed.h **** 			}
 216:.\source\rte/sc_speed.h **** 		}
 217:.\source\rte/sc_speed.h ****    }
 218:.\source\rte/sc_speed.h ****    
 219:.\source\rte/sc_speed.h ****    return RC_SUCCESS;
 220:.\source\rte/sc_speed.h **** }
 221:.\source\rte/sc_speed.h **** 
 222:.\source\rte/sc_speed.h **** 
 223:.\source\rte/sc_speed.h **** /**
 224:.\source\rte/sc_speed.h ****  * Returns the count of refreshing trials (refresh, set or set_raw) that failed.
 225:.\source\rte/sc_speed.h ****  * Prerquisite: The signal is refreshed cyclically
 226:.\source\rte/sc_speed.h ****  *
 227:.\source\rte/sc_speed.h ****  * @param  SC_SPEED_t * const signal: Pointer to the signal object
 228:.\source\rte/sc_speed.h ****  * @return uint32_t: Number of cycles since the signal has been updated for the last time
 229:.\source\rte/sc_speed.h ****  */
 230:.\source\rte/sc_speed.h **** inline uint32_t RTE_SC_SPEED_getAge( const SC_SPEED_t * const signal )
 231:.\source\rte/sc_speed.h **** {
 232:.\source\rte/sc_speed.h ****    return signal->age;
 233:.\source\rte/sc_speed.h **** }
 234:.\source\rte/sc_speed.h **** 
 235:.\source\rte/sc_speed.h **** /**
 236:.\source\rte/sc_speed.h ****  * Should be called by application or driver if no new value can be provided.
 237:.\source\rte/sc_speed.h ****  * @param  SC_SPEED_t * const signal: Pointer to the signal object
 238:.\source\rte/sc_speed.h ****  * @param uint32_t increment: incrementvalue, typically in [ms]
ARM GAS  C:\Users\JASON\AppData\Local\Temp\ccNhv63R.s 			page 13


 239:.\source\rte/sc_speed.h ****  * @return void
 240:.\source\rte/sc_speed.h ****  */
 241:.\source\rte/sc_speed.h **** inline void RTE_SC_SPEED_incAge(  SC_SPEED_t * const signal , uint32_t increment)
 242:.\source\rte/sc_speed.h **** {
 243:.\source\rte/sc_speed.h **** 	   //Hack....
 244:.\source\rte/sc_speed.h **** 	   if ( 0xFFFF0000 > (signal->age + increment) )
 245:.\source\rte/sc_speed.h **** 	   {
 246:.\source\rte/sc_speed.h **** 	      signal->age += increment;
 247:.\source\rte/sc_speed.h **** 	   }
 248:.\source\rte/sc_speed.h **** }
 249:.\source\rte/sc_speed.h **** 
 250:.\source\rte/sc_speed.h **** 
 251:.\source\rte/sc_speed.h **** /**************************************************************************************************
 252:.\source\rte/sc_speed.h **** /* Application Data read/write Interface																			*/
 253:.\source\rte/sc_speed.h **** /**************************************************************************************************
 254:.\source\rte/sc_speed.h **** 
 255:.\source\rte/sc_speed.h **** /**
 256:.\source\rte/sc_speed.h ****  * Returns the current application value of the passed signal instance.
 257:.\source\rte/sc_speed.h ****  *
 258:.\source\rte/sc_speed.h ****  * @param  SC_SPEED_t * const signal: Pointer to the signal object
 259:.\source\rte/sc_speed.h ****  * @return sc_speed_data_t: current value of the application data buffer
 260:.\source\rte/sc_speed.h ****  *
 261:.\source\rte/sc_speed.h ****  **/
 262:.\source\rte/sc_speed.h **** inline SC_SPEED_data_t RTE_SC_SPEED_get( const SC_SPEED_t * const signal )
 263:.\source\rte/sc_speed.h **** {               
 264:.\source\rte/sc_speed.h ****    //Todo: Critical region cannot be protected using return values																						
 265:.\source\rte/sc_speed.h ****    return signal->value;                                                                           
 266:.\source\rte/sc_speed.h **** }                                                                                                  
 267:.\source\rte/sc_speed.h ****                                                                                                    
 268:.\source\rte/sc_speed.h **** /**
 269:.\source\rte/sc_speed.h ****  * Returns the current application value of the passed signal instance threadsafe.
 270:.\source\rte/sc_speed.h ****  *
 271:.\source\rte/sc_speed.h ****  * @param  SC_SPEED_t * const signal: Pointer to the signal object
 272:.\source\rte/sc_speed.h ****  * @param  SC_SPEED_data_t* data: Pointer to the return data Pointer to the signal object
 273:.\source\rte/sc_speed.h ****  * @return RC_SUCCESS
 274:.\source\rte/sc_speed.h ****  *
 275:.\source\rte/sc_speed.h ****  **/
 276:.\source\rte/sc_speed.h **** inline RC_t RTE_SC_SPEED_getThreadSafe( const SC_SPEED_t * const signal, SC_SPEED_data_t * const da
 277:.\source\rte/sc_speed.h **** {    
 278:.\source\rte/sc_speed.h ****    if (TRUE == signal->pSigCfg->resourceActive) GetResource(signal->pSigCfg->resource);
 279:.\source\rte/sc_speed.h ****    *data = signal->value;
 280:.\source\rte/sc_speed.h ****    if (TRUE == signal->pSigCfg->resourceActive) ReleaseResource(signal->pSigCfg->resource);        
 281:.\source\rte/sc_speed.h **** 
 282:.\source\rte/sc_speed.h ****    return RC_SUCCESS;                                                                   
 283:.\source\rte/sc_speed.h ****    
 284:.\source\rte/sc_speed.h **** }                                                                                                  
 285:.\source\rte/sc_speed.h ****                                                                                                    
 286:.\source\rte/sc_speed.h **** /**
 287:.\source\rte/sc_speed.h ****  * Sets a new application value to the passed signal instance by passing the new value.
 288:.\source\rte/sc_speed.h ****  * The corresponding driver raw value will be calculated immediately by using the default conversio
 289:.\source\rte/sc_speed.h ****  * signal specific scaling function.
 290:.\source\rte/sc_speed.h ****  * The signal age will be set to 0 and the new status will be 'RTE_SIGNALSTATUS_VALID'.
 291:.\source\rte/sc_speed.h ****  *
 292:.\source\rte/sc_speed.h ****  * @param  SC_SPEED_t * const signal: Pointer to the signal object
 293:.\source\rte/sc_speed.h ****  * @param  sc_speed_data_t const value: value for the application data buffer
 294:.\source\rte/sc_speed.h ****  * @return RC_t: standard return code, currently only RC_SUCCESS
 295:.\source\rte/sc_speed.h ****  *
ARM GAS  C:\Users\JASON\AppData\Local\Temp\ccNhv63R.s 			page 14


 296:.\source\rte/sc_speed.h ****  **/
 297:.\source\rte/sc_speed.h **** inline RC_t RTE_SC_SPEED_set(SC_SPEED_t * const signal, const SC_SPEED_data_t value  )
 298:.\source\rte/sc_speed.h **** {
 299:.\source\rte/sc_speed.h **** 
 300:.\source\rte/sc_speed.h ****    RC_t ret = RC_SUCCESS;
 301:.\source\rte/sc_speed.h ****    size_t taskNum=0;
 302:.\source\rte/sc_speed.h **** 
 303:.\source\rte/sc_speed.h **** 
 304:.\source\rte/sc_speed.h ****    if (TRUE == signal->pSigCfg->resourceActive) GetResource(signal->pSigCfg->resource);
  95              		.loc 3 304 0
  96 0048 204B     		ldr	r3, .L12+12
  97 004a 9A68     		ldr	r2, [r3, #8]
 305:.\source\rte/sc_speed.h ****    signal->value  = value;
  98              		.loc 3 305 0
  99 004c 1970     		strb	r1, [r3]
 306:.\source\rte/sc_speed.h ****    signal->age    = 0;
 100              		.loc 3 306 0
 101 004e 0021     		movs	r1, #0
 102 0050 5960     		str	r1, [r3, #4]
 307:.\source\rte/sc_speed.h ****    signal->status = RTE_SIGNALSTATUS_VALID;
 103              		.loc 3 307 0
 104 0052 0221     		movs	r1, #2
 105 0054 5970     		strb	r1, [r3, #1]
 308:.\source\rte/sc_speed.h ****    if (TRUE == signal->pSigCfg->resourceActive) ReleaseResource(signal->pSigCfg->resource);
 309:.\source\rte/sc_speed.h **** 
 310:.\source\rte/sc_speed.h ****    //Pointer to the Taskarray, containing the tasks receiving the onUpdate events
 311:.\source\rte/sc_speed.h ****    TaskTypeArray* pTaskArray = signal->pSigCfg->onUpdateTasks;
 106              		.loc 3 311 0
 107 0056 5569     		ldr	r5, [r2, #20]
 108              	.LVL8:
 312:.\source\rte/sc_speed.h **** 
 313:.\source\rte/sc_speed.h ****    if (NULL!=signal->pSigCfg->evOnUpdate && NULL != pTaskArray){
 109              		.loc 3 313 0
 110 0058 9368     		ldr	r3, [r2, #8]
 111 005a 73B1     		cbz	r3, .L5
 112 005c 3DB9     		cbnz	r5, .L10
 113 005e 0CE0     		b	.L5
 114              	.LVL9:
 115              	.L7:
 116              	.LBB19:
 314:.\source\rte/sc_speed.h ****       for( taskNum=0 ; taskNum < signal->pSigCfg->onUpdateTaskCount ;taskNum++){
 315:.\source\rte/sc_speed.h **** 		  
 316:.\source\rte/sc_speed.h ****           TaskType task = (*pTaskArray)[taskNum];
 317:.\source\rte/sc_speed.h **** 	      SetEvent( task, signal->pSigCfg->evOnUpdate);
 117              		.loc 3 317 0
 118 0060 9968     		ldr	r1, [r3, #8]
 119 0062 55F82400 		ldr	r0, [r5, r4, lsl #2]
 120 0066 FFF7FEFF 		bl	EE_oo_SetEvent
 121              	.LVL10:
 122              	.LBE19:
 314:.\source\rte/sc_speed.h ****       for( taskNum=0 ; taskNum < signal->pSigCfg->onUpdateTaskCount ;taskNum++){
 123              		.loc 3 314 0
 124 006a 0134     		adds	r4, r4, #1
 125              	.LVL11:
 126 006c 00E0     		b	.L6
 127              	.LVL12:
 128              	.L10:
ARM GAS  C:\Users\JASON\AppData\Local\Temp\ccNhv63R.s 			page 15


 313:.\source\rte/sc_speed.h ****       for( taskNum=0 ; taskNum < signal->pSigCfg->onUpdateTaskCount ;taskNum++){
 129              		.loc 3 313 0
 130 006e 0024     		movs	r4, #0
 131              	.LVL13:
 132              	.L6:
 314:.\source\rte/sc_speed.h ****       for( taskNum=0 ; taskNum < signal->pSigCfg->onUpdateTaskCount ;taskNum++){
 133              		.loc 3 314 0
 134 0070 164B     		ldr	r3, .L12+12
 135 0072 9B68     		ldr	r3, [r3, #8]
 136 0074 1A69     		ldr	r2, [r3, #16]
 137 0076 9442     		cmp	r4, r2
 138 0078 F2D3     		bcc	.L7
 139              	.LVL14:
 140              	.L5:
 141              	.LBE18:
 142              	.LBE17:
  88:source\asw/swc_control.c ****     {
  89:source\asw/swc_control.c ****         /**
  90:source\asw/swc_control.c ****          * Updates the speed into the speed object.
  91:source\asw/swc_control.c ****          **/
  92:source\asw/swc_control.c ****         RTE_SC_SPEED_set(&SO_SPEED_signal, speedValue);
  93:source\asw/swc_control.c ****         
  94:source\asw/swc_control.c ****         /**
  95:source\asw/swc_control.c ****          * Display Speed value.
  96:source\asw/swc_control.c ****          **/
  97:source\asw/swc_control.c ****         UART_LOG_PutString("Speed : ");
 143              		.loc 1 97 0
 144 007a 1548     		ldr	r0, .L12+16
 145 007c FFF7FEFF 		bl	UART_LOG_PutString
 146              	.LVL15:
  98:source\asw/swc_control.c ****         intToASCII((uint32_t)RTE_SC_SPEED_get(&SO_SPEED_signal).speed, (uint8_t*)&asciiConvert, 4);
 147              		.loc 1 98 0
 148 0080 144C     		ldr	r4, .L12+20
 149 0082 0422     		movs	r2, #4
 150 0084 2146     		mov	r1, r4
 151 0086 114B     		ldr	r3, .L12+12
 152 0088 1878     		ldrb	r0, [r3]	@ zero_extendqisi2
 153 008a FFF7FEFF 		bl	intToASCII
 154              	.LVL16:
  99:source\asw/swc_control.c ****         UART_LOG_PutString(asciiConvert);
 155              		.loc 1 99 0
 156 008e 2046     		mov	r0, r4
 157 0090 FFF7FEFF 		bl	UART_LOG_PutString
 158              	.LVL17:
 100:source\asw/swc_control.c ****         UART_LOG_PutString("\n");
 159              		.loc 1 100 0
 160 0094 1048     		ldr	r0, .L12+24
 161 0096 FFF7FEFF 		bl	UART_LOG_PutString
 162              	.LVL18:
 163 009a 0FE0     		b	.L1
 164              	.LVL19:
 165              	.L4:
 166              	.LBB20:
 167              	.LBB21:
 232:.\source\rte/sc_speed.h **** }
 168              		.loc 3 232 0
 169 009c 0B4B     		ldr	r3, .L12+12
ARM GAS  C:\Users\JASON\AppData\Local\Temp\ccNhv63R.s 			page 16


 170 009e 5A68     		ldr	r2, [r3, #4]
 171              	.LVL20:
 172              	.LBE21:
 173              	.LBE20:
 101:source\asw/swc_control.c ****         
 102:source\asw/swc_control.c ****     }
 103:source\asw/swc_control.c ****     else
 104:source\asw/swc_control.c ****     {
 105:source\asw/swc_control.c ****         // if(RTE_SC_SPEED_getAge(&SO_SPEED_signal) >= 2000) -- test case where watchdog timeout do
 106:source\asw/swc_control.c ****         if(RTE_SC_SPEED_getAge(&SO_SPEED_signal) >= 5000) // test case for watchdog timeout
 174              		.loc 1 106 0
 175 00a0 41F28733 		movw	r3, #4999
 176 00a4 9A42     		cmp	r2, r3
 177 00a6 06D9     		bls	.L9
 107:source\asw/swc_control.c ****         {
 108:source\asw/swc_control.c ****             /**
 109:source\asw/swc_control.c ****              * Setting of the speed will continue after 5s.
 110:source\asw/swc_control.c ****              * Fails to continue if the watchdog timeout is lesser than 5s as the system will then 
 111:source\asw/swc_control.c ****              **/
 112:source\asw/swc_control.c ****             wdt_test = FALSE;
 178              		.loc 1 112 0
 179 00a8 0022     		movs	r2, #0
 180 00aa 074B     		ldr	r3, .L12+8
 181 00ac 1A70     		strb	r2, [r3]
 113:source\asw/swc_control.c ****             UART_LOG_PutString("Watchdog timer did not overflow. \n");   
 182              		.loc 1 113 0
 183 00ae 0B48     		ldr	r0, .L12+28
 184 00b0 FFF7FEFF 		bl	UART_LOG_PutString
 185              	.LVL21:
 186 00b4 02E0     		b	.L1
 187              	.L9:
 114:source\asw/swc_control.c ****         }
 115:source\asw/swc_control.c ****         else
 116:source\asw/swc_control.c ****         {
 117:source\asw/swc_control.c ****             UART_LOG_PutString("Watchdog timer testing started ... \n");   
 188              		.loc 1 117 0
 189 00b6 0A48     		ldr	r0, .L12+32
 190 00b8 FFF7FEFF 		bl	UART_LOG_PutString
 191              	.LVL22:
 192              	.L1:
 118:source\asw/swc_control.c ****         }
 119:source\asw/swc_control.c ****     }
 120:source\asw/swc_control.c **** 
 121:source\asw/swc_control.c ****     /* USER CODE END CONTROL_calcControl_run */
 122:source\asw/swc_control.c **** }
 193              		.loc 1 122 0
 194 00bc 05B0     		add	sp, sp, #20
 195              		.cfi_def_cfa_offset 12
 196              		@ sp needed
 197 00be 30BD     		pop	{r4, r5, pc}
 198              	.L13:
 199              		.align	2
 200              	.L12:
 201 00c0 00000000 		.word	SO_JOYSTICK_signal
 202 00c4 00000000 		.word	.LANCHOR0
 203 00c8 00000000 		.word	wdt_test
 204 00cc 00000000 		.word	SO_SPEED_signal
ARM GAS  C:\Users\JASON\AppData\Local\Temp\ccNhv63R.s 			page 17


 205 00d0 00000000 		.word	.LC0
 206 00d4 04000000 		.word	.LANCHOR0+4
 207 00d8 0C000000 		.word	.LC1
 208 00dc 10000000 		.word	.LC2
 209 00e0 34000000 		.word	.LC3
 210              		.cfi_endproc
 211              	.LFE150:
 212              		.size	CONTROL_calcControl_run, .-CONTROL_calcControl_run
 213              		.section	.rodata.str1.4,"aMS",%progbits,1
 214              		.align	2
 215              	.LC0:
 216 0000 53706565 		.ascii	"Speed : \000"
 216      64203A20 
 216      00
 217 0009 000000   		.space	3
 218              	.LC1:
 219 000c 0A00     		.ascii	"\012\000"
 220 000e 0000     		.space	2
 221              	.LC2:
 222 0010 57617463 		.ascii	"Watchdog timer did not overflow. \012\000"
 222      68646F67 
 222      2074696D 
 222      65722064 
 222      6964206E 
 223 0033 00       		.space	1
 224              	.LC3:
 225 0034 57617463 		.ascii	"Watchdog timer testing started ... \012\000"
 225      68646F67 
 225      2074696D 
 225      65722074 
 225      65737469 
 226              		.bss
 227              		.align	2
 228              		.set	.LANCHOR0,. + 0
 229              		.type	speedValue.6971, %object
 230              		.size	speedValue.6971, 1
 231              	speedValue.6971:
 232 0000 00       		.space	1
 233 0001 000000   		.space	3
 234              		.type	asciiConvert.6973, %object
 235              		.size	asciiConvert.6973, 30
 236              	asciiConvert.6973:
 237 0004 00000000 		.space	30
 237      00000000 
 237      00000000 
 237      00000000 
 237      00000000 
 238              		.text
 239              	.Letext0:
 240              		.file 4 "c:\\program files (x86)\\cypress\\psoc creator\\4.4\\psoc creator\\import\\gnu\\arm\\5.4.
 241              		.file 5 "c:\\program files (x86)\\cypress\\psoc creator\\4.4\\psoc creator\\import\\gnu\\arm\\5.4.
 242              		.file 6 "c:\\program files (x86)\\cypress\\psoc creator\\4.4\\psoc creator\\import\\gnu\\arm\\5.4.
 243              		.file 7 "Generated_Source\\PSoC5/ErikaOS_common_ee_types.inc"
 244              		.file 8 "Generated_Source\\PSoC5/ErikaOS_cortex_mx_ee_cpu.inc"
 245              		.file 9 "Generated_Source\\PSoC5/ErikaOS_ee_oo_common.inc"
 246              		.file 10 ".\\source\\bsw/global.h"
 247              		.file 11 ".\\source\\rte/rte_types.h"
ARM GAS  C:\Users\JASON\AppData\Local\Temp\ccNhv63R.s 			page 18


 248              		.file 12 ".\\source\\rte/rte.h"
 249              		.file 13 ".\\source\\rte/sc_joystick_type.h"
 250              		.file 14 ".\\source\\rte/sc_speed_type.h"
 251              		.file 15 "Generated_Source\\PSoC5/ErikaOS_ee_oo_intfunc.inc"
 252              		.file 16 "Generated_Source\\PSoC5/ErikaOS_cortex_mx_ee_context.inc"
 253              		.file 17 "Generated_Source\\PSoC5/ErikaOS_common_ee_primitives.inc"
 254              		.file 18 "Generated_Source\\PSoC5/core_cm3.h"
 255              		.file 19 ".\\source\\bsw/watchdog.h"
 256              		.file 20 ".\\source\\rte/sp_common.h"
 257              		.file 21 "Generated_Source\\PSoC5/ErikaOS_ee_oo_kernel.inc"
 258              		.file 22 "Generated_Source\\PSoC5/UART_LOG.h"
 259              		.file 23 ".\\source\\bsw/intToASCII.h"