ARM GAS  C:\Users\JASON\AppData\Local\Temp\ccn8PO30.s 			page 1


   1              		.syntax unified
   2              		.cpu cortex-m3
   3              		.fpu softvfp
   4              		.eabi_attribute 20, 1
   5              		.eabi_attribute 21, 1
   6              		.eabi_attribute 23, 3
   7              		.eabi_attribute 24, 1
   8              		.eabi_attribute 25, 1
   9              		.eabi_attribute 26, 1
  10              		.eabi_attribute 30, 1
  11              		.eabi_attribute 34, 1
  12              		.eabi_attribute 18, 4
  13              		.thumb
  14              		.syntax unified
  15              		.file	"swc_engine.c"
  16              		.text
  17              	.Ltext0:
  18              		.cfi_sections	.debug_frame
  19              		.section	.text.ENGINE_setEngine_run,"ax",%progbits
  20              		.align	2
  21              		.global	ENGINE_setEngine_run
  22              		.thumb
  23              		.thumb_func
  24              		.type	ENGINE_setEngine_run, %function
  25              	ENGINE_setEngine_run:
  26              	.LFB150:
  27              		.file 1 "source\\asw\\swc_engine.c"
   1:source\asw/swc_engine.c **** 
   2:source\asw/swc_engine.c **** 
   3:source\asw/swc_engine.c **** /*
   4:source\asw/swc_engine.c ****  * Filename: swc_engine.c
   5:source\asw/swc_engine.c ****  *
   6:source\asw/swc_engine.c ****  * Author: Autogenerated by H-DA RTE Generator, (c) Prof. Fromm
   7:source\asw/swc_engine.c ****  */
   8:source\asw/swc_engine.c **** 
   9:source\asw/swc_engine.c **** #include "project.h"
  10:source\asw/swc_engine.c **** #include "global.h"
  11:source\asw/swc_engine.c **** #include "rte.h"
  12:source\asw/swc_engine.c **** #include "rte_types.h"
  13:source\asw/swc_engine.c **** #include "swc_engine.h"
  14:source\asw/swc_engine.c **** 
  15:source\asw/swc_engine.c **** 
  16:source\asw/swc_engine.c **** 
  17:source\asw/swc_engine.c **** /* USER CODE START SWC_ENGINE_INCLUDE */
  18:source\asw/swc_engine.c **** 
  19:source\asw/swc_engine.c **** #include "intToASCII.h"
  20:source\asw/swc_engine.c **** #include "led.h"
  21:source\asw/swc_engine.c **** #include "watchdog.h"
  22:source\asw/swc_engine.c **** 
  23:source\asw/swc_engine.c **** /* USER CODE END SWC_ENGINE_INCLUDE */
  24:source\asw/swc_engine.c **** 
  25:source\asw/swc_engine.c **** 
  26:source\asw/swc_engine.c **** #include "sp_common.h"
  27:source\asw/swc_engine.c **** 
  28:source\asw/swc_engine.c **** /* USER CODE START SWC_ENGINE_USERDEFINITIONS */
  29:source\asw/swc_engine.c **** 
  30:source\asw/swc_engine.c **** /* USER CODE END SWC_ENGINE_USERDEFINITIONS */
ARM GAS  C:\Users\JASON\AppData\Local\Temp\ccn8PO30.s 			page 2


  31:source\asw/swc_engine.c **** 
  32:source\asw/swc_engine.c **** 
  33:source\asw/swc_engine.c **** 
  34:source\asw/swc_engine.c **** /*
  35:source\asw/swc_engine.c **** * component: swc_engine
  36:source\asw/swc_engine.c **** * cycletime: 100
  37:source\asw/swc_engine.c **** * description: Runnable for running the engine.
  38:source\asw/swc_engine.c **** * events: 
  39:source\asw/swc_engine.c **** * name: ENGINE_setEngine_run
  40:source\asw/swc_engine.c **** * shortname: setEngine
  41:source\asw/swc_engine.c **** * signalIN: so_speed
  42:source\asw/swc_engine.c **** * signalOUT: so_engine
  43:source\asw/swc_engine.c **** * task: tsk_inputoutput
  44:source\asw/swc_engine.c **** */
  45:source\asw/swc_engine.c **** void ENGINE_setEngine_run(RTE_event ev){
  28              		.loc 1 45 0
  29              		.cfi_startproc
  30              		@ args = 0, pretend = 0, frame = 0
  31              		@ frame_needed = 0, uses_anonymous_args = 0
  32              	.LVL0:
  33 0000 38B5     		push	{r3, r4, r5, lr}
  34              		.cfi_def_cfa_offset 16
  35              		.cfi_offset 3, -16
  36              		.cfi_offset 4, -12
  37              		.cfi_offset 5, -8
  38              		.cfi_offset 14, -4
  46:source\asw/swc_engine.c **** 	
  47:source\asw/swc_engine.c **** 	/* USER CODE START ENGINE_setEngine_run */
  48:source\asw/swc_engine.c ****     
  49:source\asw/swc_engine.c ****     static RC_t res = RC_SUCCESS;
  50:source\asw/swc_engine.c ****     static SC_ENGINE_data_t engineValue = SC_ENGINE_INIT_DATA;
  51:source\asw/swc_engine.c ****     static char asciiConvert[30];
  52:source\asw/swc_engine.c ****     
  53:source\asw/swc_engine.c ****     /*
  54:source\asw/swc_engine.c ****      * Updating the Alive Monitoring register.
  55:source\asw/swc_engine.c ****      * Bit Position 2 - RUNNABLE_SETENGINE
  56:source\asw/swc_engine.c ****      **/
  57:source\asw/swc_engine.c ****     res = WD_Alive(2);
  39              		.loc 1 57 0
  40 0002 0220     		movs	r0, #2
  41              	.LVL1:
  42 0004 FFF7FEFF 		bl	WD_Alive
  43              	.LVL2:
  58:source\asw/swc_engine.c ****     /**
  59:source\asw/swc_engine.c ****      * Error Handling
  60:source\asw/swc_engine.c ****      **/
  61:source\asw/swc_engine.c ****     if(res != RC_SUCCESS)
  44              		.loc 1 61 0
  45 0008 10B1     		cbz	r0, .L2
  62:source\asw/swc_engine.c ****     {
  63:source\asw/swc_engine.c ****         UART_LOG_PutString("Watchdog Status register update failed. \n");   
  46              		.loc 1 63 0
  47 000a 3348     		ldr	r0, .L13
  48 000c FFF7FEFF 		bl	UART_LOG_PutString
  49              	.LVL3:
  50              	.L2:
  51              	.LBB15:
ARM GAS  C:\Users\JASON\AppData\Local\Temp\ccn8PO30.s 			page 3


  52              	.LBB16:
  53              		.file 2 ".\\source\\rte/sc_speed.h"
   1:.\source\rte/sc_speed.h **** 
   2:.\source\rte/sc_speed.h **** 
   3:.\source\rte/sc_speed.h **** /**
   4:.\source\rte/sc_speed.h **** *  file    SC_SPEED_signal.h
   5:.\source\rte/sc_speed.h **** *
   6:.\source\rte/sc_speed.h **** *  brief   signal base class for signal sc_speed
   7:.\source\rte/sc_speed.h **** *
   8:.\source\rte/sc_speed.h **** *  author  Autogenerated, Peter Fromm       <peter.fromm@h-da.de>
   9:.\source\rte/sc_speed.h **** *
  10:.\source\rte/sc_speed.h **** *
  11:.\source\rte/sc_speed.h **** */
  12:.\source\rte/sc_speed.h **** 
  13:.\source\rte/sc_speed.h **** /*
  14:.\source\rte/sc_speed.h **** * description: Signalclass representing the speed.
  15:.\source\rte/sc_speed.h **** * name: sc_speed
  16:.\source\rte/sc_speed.h **** * shortname: speed
  17:.\source\rte/sc_speed.h **** */
  18:.\source\rte/sc_speed.h **** 
  19:.\source\rte/sc_speed.h **** #ifndef SC_SPEED_SIGNAL_H_INCLUDED
  20:.\source\rte/sc_speed.h **** #define SC_SPEED_SIGNAL_H_INCLUDED
  21:.\source\rte/sc_speed.h **** 
  22:.\source\rte/sc_speed.h **** /*================================================[ public includes  ]=============================
  23:.\source\rte/sc_speed.h **** #include "global.h"
  24:.\source\rte/sc_speed.h **** #include "project.h"
  25:.\source\rte/sc_speed.h **** #include "rte.h"
  26:.\source\rte/sc_speed.h **** #include "rte_types.h"
  27:.\source\rte/sc_speed.h **** 
  28:.\source\rte/sc_speed.h **** #include "sc_speed_type.h"
  29:.\source\rte/sc_speed.h **** 
  30:.\source\rte/sc_speed.h **** 
  31:.\source\rte/sc_speed.h **** /**************************************************************************************************
  32:.\source\rte/sc_speed.h **** /* The driver API block																						*/
  33:.\source\rte/sc_speed.h **** /**************************************************************************************************
  34:.\source\rte/sc_speed.h ****                                                                                                    
  35:.\source\rte/sc_speed.h **** /**
  36:.\source\rte/sc_speed.h ****  *  Definition of function types for driver interfaces.
  37:.\source\rte/sc_speed.h ****  *  I-Port
  38:.\source\rte/sc_speed.h ****  */
  39:.\source\rte/sc_speed.h **** typedef RC_t (*SC_SPEED_driverIn_t)(SC_SPEED_data_t * const);
  40:.\source\rte/sc_speed.h **** 
  41:.\source\rte/sc_speed.h **** /**
  42:.\source\rte/sc_speed.h ****  *  Definition of function types for driver interfaces.
  43:.\source\rte/sc_speed.h ****  *  O-Port
  44:.\source\rte/sc_speed.h ****  */
  45:.\source\rte/sc_speed.h **** typedef RC_t (*SC_SPEED_driverOut_t)( const SC_SPEED_data_t * const);
  46:.\source\rte/sc_speed.h **** 
  47:.\source\rte/sc_speed.h **** 
  48:.\source\rte/sc_speed.h **** /**************************************************************************************************
  49:.\source\rte/sc_speed.h **** /* The signal configuration API block																				*/
  50:.\source\rte/sc_speed.h **** /**************************************************************************************************
  51:.\source\rte/sc_speed.h **** 
  52:.\source\rte/sc_speed.h **** /**
  53:.\source\rte/sc_speed.h ****  * Instances of the struct SC_SPEED_cfg_t represent the signal object configuration.
  54:.\source\rte/sc_speed.h ****  */
  55:.\source\rte/sc_speed.h **** struct SC_SPEED_cfg_s
ARM GAS  C:\Users\JASON\AppData\Local\Temp\ccn8PO30.s 			page 4


  56:.\source\rte/sc_speed.h **** {
  57:.\source\rte/sc_speed.h ****     /**
  58:.\source\rte/sc_speed.h ****      * Function pointer to the input driver
  59:.\source\rte/sc_speed.h ****      */
  60:.\source\rte/sc_speed.h ****     SC_SPEED_driverIn_t const inDriver;
  61:.\source\rte/sc_speed.h **** 
  62:.\source\rte/sc_speed.h ****     /**
  63:.\source\rte/sc_speed.h ****      * Function pointer to the output driver table
  64:.\source\rte/sc_speed.h ****      */
  65:.\source\rte/sc_speed.h ****    SC_SPEED_driverOut_t const outDriver;
  66:.\source\rte/sc_speed.h ****    
  67:.\source\rte/sc_speed.h ****     /**
  68:.\source\rte/sc_speed.h ****      * Event onUpdate
  69:.\source\rte/sc_speed.h ****      */
  70:.\source\rte/sc_speed.h ****     EventMaskType const evOnUpdate;
  71:.\source\rte/sc_speed.h ****     
  72:.\source\rte/sc_speed.h ****     
  73:.\source\rte/sc_speed.h ****     /**
  74:.\source\rte/sc_speed.h ****      * Event onError
  75:.\source\rte/sc_speed.h ****      */
  76:.\source\rte/sc_speed.h ****     EventMaskType const evOnError;
  77:.\source\rte/sc_speed.h ****     
  78:.\source\rte/sc_speed.h ****     /**
  79:.\source\rte/sc_speed.h ****      * Task Count onUpdate
  80:.\source\rte/sc_speed.h ****      */
  81:.\source\rte/sc_speed.h ****     size_t const onUpdateTaskCount;
  82:.\source\rte/sc_speed.h **** 
  83:.\source\rte/sc_speed.h ****     /**
  84:.\source\rte/sc_speed.h ****      * Task List onUpdate
  85:.\source\rte/sc_speed.h ****      */
  86:.\source\rte/sc_speed.h ****     TaskTypeArray* const onUpdateTasks;
  87:.\source\rte/sc_speed.h ****     
  88:.\source\rte/sc_speed.h ****     /**
  89:.\source\rte/sc_speed.h ****      * Task Count onError
  90:.\source\rte/sc_speed.h ****      */
  91:.\source\rte/sc_speed.h ****     size_t const onErrorTaskCount;
  92:.\source\rte/sc_speed.h **** 
  93:.\source\rte/sc_speed.h ****     /**
  94:.\source\rte/sc_speed.h ****      * Task List onError
  95:.\source\rte/sc_speed.h ****      */
  96:.\source\rte/sc_speed.h ****     TaskTypeArray* const onErrorTasks;
  97:.\source\rte/sc_speed.h **** 	
  98:.\source\rte/sc_speed.h **** 	
  99:.\source\rte/sc_speed.h **** 	/**
 100:.\source\rte/sc_speed.h **** 	 * Ressourse is active? We need an additional boolean as a ressource value 0 is valid.
 101:.\source\rte/sc_speed.h **** 	 */
 102:.\source\rte/sc_speed.h **** 	 boolean_t const resourceActive;
 103:.\source\rte/sc_speed.h **** 	 
 104:.\source\rte/sc_speed.h **** 	/**
 105:.\source\rte/sc_speed.h **** 	 * Ressourse 
 106:.\source\rte/sc_speed.h **** 	 */
 107:.\source\rte/sc_speed.h **** 	 ResourceType const resource;
 108:.\source\rte/sc_speed.h **** 
 109:.\source\rte/sc_speed.h **** };                                                                                                 
 110:.\source\rte/sc_speed.h **** typedef const struct SC_SPEED_cfg_s SC_SPEED_cfg_t;
 111:.\source\rte/sc_speed.h ****                               
 112:.\source\rte/sc_speed.h **** /**************************************************************************************************
ARM GAS  C:\Users\JASON\AppData\Local\Temp\ccn8PO30.s 			page 5


 113:.\source\rte/sc_speed.h **** /* The data interface block																							*/
 114:.\source\rte/sc_speed.h **** /**************************************************************************************************
 115:.\source\rte/sc_speed.h **** 
 116:.\source\rte/sc_speed.h ****                                                                                                    
 117:.\source\rte/sc_speed.h **** 							  
 118:.\source\rte/sc_speed.h **** /**
 119:.\source\rte/sc_speed.h ****  * Instances of the struct SC_SPEED_t represent the signal objects.
 120:.\source\rte/sc_speed.h ****  * A signal object contains the current application value 'value' as well as relevant meta data.
 121:.\source\rte/sc_speed.h ****  */
 122:.\source\rte/sc_speed.h **** struct SC_SPEED_s
 123:.\source\rte/sc_speed.h **** {                                                                                                  
 124:.\source\rte/sc_speed.h **** 
 125:.\source\rte/sc_speed.h **** 	/**
 126:.\source\rte/sc_speed.h **** 	 * Data buffer for the application value
 127:.\source\rte/sc_speed.h **** 	 */
 128:.\source\rte/sc_speed.h ****     SC_SPEED_data_t value;
 129:.\source\rte/sc_speed.h **** 
 130:.\source\rte/sc_speed.h ****     /**
 131:.\source\rte/sc_speed.h ****      * Current signal status
 132:.\source\rte/sc_speed.h ****      */
 133:.\source\rte/sc_speed.h ****     RTE_signalStatus_t status;
 134:.\source\rte/sc_speed.h **** 
 135:.\source\rte/sc_speed.h ****     /**
 136:.\source\rte/sc_speed.h ****      * Current age of the signal (in calling cycles)
 137:.\source\rte/sc_speed.h ****      */
 138:.\source\rte/sc_speed.h ****     uint32_t age;
 139:.\source\rte/sc_speed.h **** 
 140:.\source\rte/sc_speed.h ****     /**
 141:.\source\rte/sc_speed.h ****      * Pointer to the signal configuration
 142:.\source\rte/sc_speed.h ****      */
 143:.\source\rte/sc_speed.h **** 	const SC_SPEED_cfg_t * const    pSigCfg;
 144:.\source\rte/sc_speed.h **** 
 145:.\source\rte/sc_speed.h **** };                                                                                                 
 146:.\source\rte/sc_speed.h **** typedef struct SC_SPEED_s SC_SPEED_t;
 147:.\source\rte/sc_speed.h **** 
 148:.\source\rte/sc_speed.h **** /**************************************************************************************************
 149:.\source\rte/sc_speed.h **** /* Signal initialisation   																							*/
 150:.\source\rte/sc_speed.h **** /**************************************************************************************************
 151:.\source\rte/sc_speed.h **** 
 152:.\source\rte/sc_speed.h **** /**
 153:.\source\rte/sc_speed.h ****  * Initializes a signal instance with a passed init value.
 154:.\source\rte/sc_speed.h ****  * Depending on the configured conversion or scaling function the raw_value will be calculated.
 155:.\source\rte/sc_speed.h ****  * Signal status will change from RTE_SIGNALSTATUS_STARTUP to RTE_SIGNALSTATUS_INITIALIZED.
 156:.\source\rte/sc_speed.h ****  *
 157:.\source\rte/sc_speed.h ****  * @param  SC_SPEED_t * const signal: Pointer to the signal object which will be initialised
 158:.\source\rte/sc_speed.h ****  * @param const sc_speed_data_t * const value: Pointer to initial value of the application data
 159:.\source\rte/sc_speed.h ****  * @return RC_t: standard return code, currently only RC_SUCCESS
 160:.\source\rte/sc_speed.h ****  *
 161:.\source\rte/sc_speed.h ****  **/
 162:.\source\rte/sc_speed.h **** inline RC_t RTE_SC_SPEED_init( SC_SPEED_t * const signal, const SC_SPEED_data_t * const value )
 163:.\source\rte/sc_speed.h **** {                                                                                                  
 164:.\source\rte/sc_speed.h **** 
 165:.\source\rte/sc_speed.h ****    RC_t ret = RC_SUCCESS;
 166:.\source\rte/sc_speed.h **** 
 167:.\source\rte/sc_speed.h ****    //Set value and raw value
 168:.\source\rte/sc_speed.h ****    signal->value  = *value;
 169:.\source\rte/sc_speed.h ****    signal->age    = 0;
ARM GAS  C:\Users\JASON\AppData\Local\Temp\ccn8PO30.s 			page 6


 170:.\source\rte/sc_speed.h ****    signal->status = RTE_SIGNALSTATUS_INITIALIZED;
 171:.\source\rte/sc_speed.h **** 
 172:.\source\rte/sc_speed.h ****    return ret;
 173:.\source\rte/sc_speed.h **** }
 174:.\source\rte/sc_speed.h **** 
 175:.\source\rte/sc_speed.h **** /**************************************************************************************************
 176:.\source\rte/sc_speed.h **** /* Status and timeout control																						*/
 177:.\source\rte/sc_speed.h **** /**************************************************************************************************
 178:.\source\rte/sc_speed.h **** 
 179:.\source\rte/sc_speed.h **** /**
 180:.\source\rte/sc_speed.h ****  *  Returns the current signal status of the passed signal instance.
 181:.\source\rte/sc_speed.h ****  *
 182:.\source\rte/sc_speed.h ****  * @param  SC_SPEED_t * const signal: Pointer to the signal object
 183:.\source\rte/sc_speed.h ****  * @return  sig_status_t: The current signal status
 184:.\source\rte/sc_speed.h ****  *
 185:.\source\rte/sc_speed.h ****  **/
 186:.\source\rte/sc_speed.h **** inline RTE_signalStatus_t RTE_SC_SPEED_getStatus( const SC_SPEED_t * const signal )
 187:.\source\rte/sc_speed.h **** {
 188:.\source\rte/sc_speed.h ****    return signal->status;
 189:.\source\rte/sc_speed.h **** }
 190:.\source\rte/sc_speed.h **** 
 191:.\source\rte/sc_speed.h **** 
 192:.\source\rte/sc_speed.h **** /**
 193:.\source\rte/sc_speed.h ****  *  Sets a new signal status of the passed signal instance by passing the new status.
 194:.\source\rte/sc_speed.h ****  *
 195:.\source\rte/sc_speed.h ****  * @param  SC_SPEED_t * const signal: Pointer to the signal object
 196:.\source\rte/sc_speed.h ****  * @param  const sig_status_t status: New signal status
 197:.\source\rte/sc_speed.h ****  * @return RC_t: standard return code, currently only RC_SUCCESS
 198:.\source\rte/sc_speed.h ****  *
 199:.\source\rte/sc_speed.h ****  */
 200:.\source\rte/sc_speed.h **** inline RC_t RTE_SC_SPEED_setStatus( SC_SPEED_t * const signal, const RTE_signalStatus_t status )
 201:.\source\rte/sc_speed.h **** {
 202:.\source\rte/sc_speed.h ****    signal->status = status;
 203:.\source\rte/sc_speed.h ****    size_t taskNum=0;
 204:.\source\rte/sc_speed.h ****    
 205:.\source\rte/sc_speed.h ****    //Fire error events in case of invalid state
 206:.\source\rte/sc_speed.h ****    if (signal->status == RTE_SIGNALSTATUS_INVALID)
 207:.\source\rte/sc_speed.h ****    {
 208:.\source\rte/sc_speed.h **** 	    //Pointer to the Taskarray, containing the tasks receiving the onUpdate events
 209:.\source\rte/sc_speed.h **** 		TaskTypeArray* pTaskArray = signal->pSigCfg->onErrorTasks;
 210:.\source\rte/sc_speed.h **** 
 211:.\source\rte/sc_speed.h **** 		if (NULL!=signal->pSigCfg->evOnError && NULL != pTaskArray){
 212:.\source\rte/sc_speed.h **** 			for( taskNum=0 ; taskNum < signal->pSigCfg->onErrorTaskCount ;taskNum++){
 213:.\source\rte/sc_speed.h **** 				TaskType task = (*pTaskArray)[taskNum];
 214:.\source\rte/sc_speed.h **** 				SetEvent( task, signal->pSigCfg->evOnError);
 215:.\source\rte/sc_speed.h **** 			}
 216:.\source\rte/sc_speed.h **** 		}
 217:.\source\rte/sc_speed.h ****    }
 218:.\source\rte/sc_speed.h ****    
 219:.\source\rte/sc_speed.h ****    return RC_SUCCESS;
 220:.\source\rte/sc_speed.h **** }
 221:.\source\rte/sc_speed.h **** 
 222:.\source\rte/sc_speed.h **** 
 223:.\source\rte/sc_speed.h **** /**
 224:.\source\rte/sc_speed.h ****  * Returns the count of refreshing trials (refresh, set or set_raw) that failed.
 225:.\source\rte/sc_speed.h ****  * Prerquisite: The signal is refreshed cyclically
 226:.\source\rte/sc_speed.h ****  *
ARM GAS  C:\Users\JASON\AppData\Local\Temp\ccn8PO30.s 			page 7


 227:.\source\rte/sc_speed.h ****  * @param  SC_SPEED_t * const signal: Pointer to the signal object
 228:.\source\rte/sc_speed.h ****  * @return uint32_t: Number of cycles since the signal has been updated for the last time
 229:.\source\rte/sc_speed.h ****  */
 230:.\source\rte/sc_speed.h **** inline uint32_t RTE_SC_SPEED_getAge( const SC_SPEED_t * const signal )
 231:.\source\rte/sc_speed.h **** {
 232:.\source\rte/sc_speed.h ****    return signal->age;
  54              		.loc 2 232 0
  55 0010 324B     		ldr	r3, .L13+4
  56 0012 5B68     		ldr	r3, [r3, #4]
  57              	.LVL4:
  58              	.LBE16:
  59              	.LBE15:
  64:source\asw/swc_engine.c ****     }
  65:source\asw/swc_engine.c **** 
  66:source\asw/swc_engine.c ****     /**
  67:source\asw/swc_engine.c ****      * Engine value is updated by copying the speed value only if the speed value is not too old.
  68:source\asw/swc_engine.c ****      * Here, the speed value is expected to be not older than 100ms.
  69:source\asw/swc_engine.c ****      * Otherwise engine value is copied as 0.
  70:source\asw/swc_engine.c ****      **/
  71:source\asw/swc_engine.c ****     if(RTE_SC_SPEED_getAge(&SO_SPEED_signal) < 100)
  60              		.loc 1 71 0
  61 0014 632B     		cmp	r3, #99
  62 0016 07D8     		bhi	.L3
  63              	.LVL5:
  72:source\asw/swc_engine.c ****     {
  73:source\asw/swc_engine.c ****         engineValue.engine = RTE_SC_SPEED_get(&SO_SPEED_signal).speed;
  64              		.loc 1 73 0
  65 0018 304B     		ldr	r3, .L13+4
  66 001a 1A78     		ldrb	r2, [r3]	@ zero_extendqisi2
  67 001c 304B     		ldr	r3, .L13+8
  68 001e 1A70     		strb	r2, [r3]
  74:source\asw/swc_engine.c ****         UART_LOG_PutString("ENGINE UPDATED. \n");
  69              		.loc 1 74 0
  70 0020 3048     		ldr	r0, .L13+12
  71 0022 FFF7FEFF 		bl	UART_LOG_PutString
  72              	.LVL6:
  73 0026 12E0     		b	.L4
  74              	.L3:
  75:source\asw/swc_engine.c ****     }
  76:source\asw/swc_engine.c ****     else
  77:source\asw/swc_engine.c ****     {
  78:source\asw/swc_engine.c ****         UART_LOG_PutString("Speed Signal Age too old ie. ");
  75              		.loc 1 78 0
  76 0028 2F48     		ldr	r0, .L13+16
  77 002a FFF7FEFF 		bl	UART_LOG_PutString
  78              	.LVL7:
  79:source\asw/swc_engine.c ****         intToASCII(RTE_SC_SPEED_getAge(&SO_SPEED_signal), (uint8_t*)&asciiConvert, 4);
  79              		.loc 1 79 0
  80 002e 2C4C     		ldr	r4, .L13+8
  81 0030 251D     		adds	r5, r4, #4
  82 0032 0422     		movs	r2, #4
  83 0034 2946     		mov	r1, r5
  84 0036 294B     		ldr	r3, .L13+4
  85 0038 5868     		ldr	r0, [r3, #4]
  86 003a FFF7FEFF 		bl	intToASCII
  87              	.LVL8:
  80:source\asw/swc_engine.c ****         UART_LOG_PutString(asciiConvert);
ARM GAS  C:\Users\JASON\AppData\Local\Temp\ccn8PO30.s 			page 8


  88              		.loc 1 80 0
  89 003e 2846     		mov	r0, r5
  90 0040 FFF7FEFF 		bl	UART_LOG_PutString
  91              	.LVL9:
  81:source\asw/swc_engine.c ****         UART_LOG_PutString("ms. \n");
  92              		.loc 1 81 0
  93 0044 2948     		ldr	r0, .L13+20
  94 0046 FFF7FEFF 		bl	UART_LOG_PutString
  95              	.LVL10:
  82:source\asw/swc_engine.c ****         engineValue.engine = 0;
  96              		.loc 1 82 0
  97 004a 0023     		movs	r3, #0
  98 004c 2370     		strb	r3, [r4]
  99              	.L4:
 100              	.LVL11:
 101 004e 244B     		ldr	r3, .L13+8
 102 0050 1978     		ldrb	r1, [r3]	@ zero_extendqisi2
 103              	.LVL12:
 104              	.LBB17:
 105              	.LBB18:
 106              		.file 3 ".\\source\\rte/sc_engine.h"
   1:.\source\rte/sc_engine.h **** 
   2:.\source\rte/sc_engine.h **** 
   3:.\source\rte/sc_engine.h **** /**
   4:.\source\rte/sc_engine.h **** *  file    SC_ENGINE_signal.h
   5:.\source\rte/sc_engine.h **** *
   6:.\source\rte/sc_engine.h **** *  brief   signal base class for signal sc_engine
   7:.\source\rte/sc_engine.h **** *
   8:.\source\rte/sc_engine.h **** *  author  Autogenerated, Peter Fromm       <peter.fromm@h-da.de>
   9:.\source\rte/sc_engine.h **** *
  10:.\source\rte/sc_engine.h **** *
  11:.\source\rte/sc_engine.h **** */
  12:.\source\rte/sc_engine.h **** 
  13:.\source\rte/sc_engine.h **** /*
  14:.\source\rte/sc_engine.h **** * description: Signalclass representing the engine.
  15:.\source\rte/sc_engine.h **** * name: sc_engine
  16:.\source\rte/sc_engine.h **** * shortname: engine
  17:.\source\rte/sc_engine.h **** */
  18:.\source\rte/sc_engine.h **** 
  19:.\source\rte/sc_engine.h **** #ifndef SC_ENGINE_SIGNAL_H_INCLUDED
  20:.\source\rte/sc_engine.h **** #define SC_ENGINE_SIGNAL_H_INCLUDED
  21:.\source\rte/sc_engine.h **** 
  22:.\source\rte/sc_engine.h **** /*================================================[ public includes  ]=============================
  23:.\source\rte/sc_engine.h **** #include "global.h"
  24:.\source\rte/sc_engine.h **** #include "project.h"
  25:.\source\rte/sc_engine.h **** #include "rte.h"
  26:.\source\rte/sc_engine.h **** #include "rte_types.h"
  27:.\source\rte/sc_engine.h **** 
  28:.\source\rte/sc_engine.h **** #include "sc_engine_type.h"
  29:.\source\rte/sc_engine.h **** 
  30:.\source\rte/sc_engine.h **** 
  31:.\source\rte/sc_engine.h **** /**************************************************************************************************
  32:.\source\rte/sc_engine.h **** /* The driver API block																						*/
  33:.\source\rte/sc_engine.h **** /**************************************************************************************************
  34:.\source\rte/sc_engine.h ****                                                                                                    
  35:.\source\rte/sc_engine.h **** /**
  36:.\source\rte/sc_engine.h ****  *  Definition of function types for driver interfaces.
ARM GAS  C:\Users\JASON\AppData\Local\Temp\ccn8PO30.s 			page 9


  37:.\source\rte/sc_engine.h ****  *  I-Port
  38:.\source\rte/sc_engine.h ****  */
  39:.\source\rte/sc_engine.h **** typedef RC_t (*SC_ENGINE_driverIn_t)(SC_ENGINE_data_t * const);
  40:.\source\rte/sc_engine.h **** 
  41:.\source\rte/sc_engine.h **** /**
  42:.\source\rte/sc_engine.h ****  *  Definition of function types for driver interfaces.
  43:.\source\rte/sc_engine.h ****  *  O-Port
  44:.\source\rte/sc_engine.h ****  */
  45:.\source\rte/sc_engine.h **** typedef RC_t (*SC_ENGINE_driverOut_t)( const SC_ENGINE_data_t * const);
  46:.\source\rte/sc_engine.h **** 
  47:.\source\rte/sc_engine.h **** 
  48:.\source\rte/sc_engine.h **** /**************************************************************************************************
  49:.\source\rte/sc_engine.h **** /* The signal configuration API block																				*/
  50:.\source\rte/sc_engine.h **** /**************************************************************************************************
  51:.\source\rte/sc_engine.h **** 
  52:.\source\rte/sc_engine.h **** /**
  53:.\source\rte/sc_engine.h ****  * Instances of the struct SC_ENGINE_cfg_t represent the signal object configuration.
  54:.\source\rte/sc_engine.h ****  */
  55:.\source\rte/sc_engine.h **** struct SC_ENGINE_cfg_s
  56:.\source\rte/sc_engine.h **** {
  57:.\source\rte/sc_engine.h ****     /**
  58:.\source\rte/sc_engine.h ****      * Function pointer to the input driver
  59:.\source\rte/sc_engine.h ****      */
  60:.\source\rte/sc_engine.h ****     SC_ENGINE_driverIn_t const inDriver;
  61:.\source\rte/sc_engine.h **** 
  62:.\source\rte/sc_engine.h ****     /**
  63:.\source\rte/sc_engine.h ****      * Function pointer to the output driver table
  64:.\source\rte/sc_engine.h ****      */
  65:.\source\rte/sc_engine.h ****    SC_ENGINE_driverOut_t const outDriver;
  66:.\source\rte/sc_engine.h ****    
  67:.\source\rte/sc_engine.h ****     /**
  68:.\source\rte/sc_engine.h ****      * Event onUpdate
  69:.\source\rte/sc_engine.h ****      */
  70:.\source\rte/sc_engine.h ****     EventMaskType const evOnUpdate;
  71:.\source\rte/sc_engine.h ****     
  72:.\source\rte/sc_engine.h ****     
  73:.\source\rte/sc_engine.h ****     /**
  74:.\source\rte/sc_engine.h ****      * Event onError
  75:.\source\rte/sc_engine.h ****      */
  76:.\source\rte/sc_engine.h ****     EventMaskType const evOnError;
  77:.\source\rte/sc_engine.h ****     
  78:.\source\rte/sc_engine.h ****     /**
  79:.\source\rte/sc_engine.h ****      * Task Count onUpdate
  80:.\source\rte/sc_engine.h ****      */
  81:.\source\rte/sc_engine.h ****     size_t const onUpdateTaskCount;
  82:.\source\rte/sc_engine.h **** 
  83:.\source\rte/sc_engine.h ****     /**
  84:.\source\rte/sc_engine.h ****      * Task List onUpdate
  85:.\source\rte/sc_engine.h ****      */
  86:.\source\rte/sc_engine.h ****     TaskTypeArray* const onUpdateTasks;
  87:.\source\rte/sc_engine.h ****     
  88:.\source\rte/sc_engine.h ****     /**
  89:.\source\rte/sc_engine.h ****      * Task Count onError
  90:.\source\rte/sc_engine.h ****      */
  91:.\source\rte/sc_engine.h ****     size_t const onErrorTaskCount;
  92:.\source\rte/sc_engine.h **** 
  93:.\source\rte/sc_engine.h ****     /**
ARM GAS  C:\Users\JASON\AppData\Local\Temp\ccn8PO30.s 			page 10


  94:.\source\rte/sc_engine.h ****      * Task List onError
  95:.\source\rte/sc_engine.h ****      */
  96:.\source\rte/sc_engine.h ****     TaskTypeArray* const onErrorTasks;
  97:.\source\rte/sc_engine.h **** 	
  98:.\source\rte/sc_engine.h **** 	
  99:.\source\rte/sc_engine.h **** 	/**
 100:.\source\rte/sc_engine.h **** 	 * Ressourse is active? We need an additional boolean as a ressource value 0 is valid.
 101:.\source\rte/sc_engine.h **** 	 */
 102:.\source\rte/sc_engine.h **** 	 boolean_t const resourceActive;
 103:.\source\rte/sc_engine.h **** 	 
 104:.\source\rte/sc_engine.h **** 	/**
 105:.\source\rte/sc_engine.h **** 	 * Ressourse 
 106:.\source\rte/sc_engine.h **** 	 */
 107:.\source\rte/sc_engine.h **** 	 ResourceType const resource;
 108:.\source\rte/sc_engine.h **** 
 109:.\source\rte/sc_engine.h **** };                                                                                                 
 110:.\source\rte/sc_engine.h **** typedef const struct SC_ENGINE_cfg_s SC_ENGINE_cfg_t;
 111:.\source\rte/sc_engine.h ****                               
 112:.\source\rte/sc_engine.h **** /**************************************************************************************************
 113:.\source\rte/sc_engine.h **** /* The data interface block																							*/
 114:.\source\rte/sc_engine.h **** /**************************************************************************************************
 115:.\source\rte/sc_engine.h **** 
 116:.\source\rte/sc_engine.h ****                                                                                                    
 117:.\source\rte/sc_engine.h **** 							  
 118:.\source\rte/sc_engine.h **** /**
 119:.\source\rte/sc_engine.h ****  * Instances of the struct SC_ENGINE_t represent the signal objects.
 120:.\source\rte/sc_engine.h ****  * A signal object contains the current application value 'value' as well as relevant meta data.
 121:.\source\rte/sc_engine.h ****  */
 122:.\source\rte/sc_engine.h **** struct SC_ENGINE_s
 123:.\source\rte/sc_engine.h **** {                                                                                                  
 124:.\source\rte/sc_engine.h **** 
 125:.\source\rte/sc_engine.h **** 	/**
 126:.\source\rte/sc_engine.h **** 	 * Data buffer for the application value
 127:.\source\rte/sc_engine.h **** 	 */
 128:.\source\rte/sc_engine.h ****     SC_ENGINE_data_t value;
 129:.\source\rte/sc_engine.h **** 
 130:.\source\rte/sc_engine.h ****     /**
 131:.\source\rte/sc_engine.h ****      * Current signal status
 132:.\source\rte/sc_engine.h ****      */
 133:.\source\rte/sc_engine.h ****     RTE_signalStatus_t status;
 134:.\source\rte/sc_engine.h **** 
 135:.\source\rte/sc_engine.h ****     /**
 136:.\source\rte/sc_engine.h ****      * Current age of the signal (in calling cycles)
 137:.\source\rte/sc_engine.h ****      */
 138:.\source\rte/sc_engine.h ****     uint32_t age;
 139:.\source\rte/sc_engine.h **** 
 140:.\source\rte/sc_engine.h ****     /**
 141:.\source\rte/sc_engine.h ****      * Pointer to the signal configuration
 142:.\source\rte/sc_engine.h ****      */
 143:.\source\rte/sc_engine.h **** 	const SC_ENGINE_cfg_t * const    pSigCfg;
 144:.\source\rte/sc_engine.h **** 
 145:.\source\rte/sc_engine.h **** };                                                                                                 
 146:.\source\rte/sc_engine.h **** typedef struct SC_ENGINE_s SC_ENGINE_t;
 147:.\source\rte/sc_engine.h **** 
 148:.\source\rte/sc_engine.h **** /**************************************************************************************************
 149:.\source\rte/sc_engine.h **** /* Signal initialisation   																							*/
 150:.\source\rte/sc_engine.h **** /**************************************************************************************************
ARM GAS  C:\Users\JASON\AppData\Local\Temp\ccn8PO30.s 			page 11


 151:.\source\rte/sc_engine.h **** 
 152:.\source\rte/sc_engine.h **** /**
 153:.\source\rte/sc_engine.h ****  * Initializes a signal instance with a passed init value.
 154:.\source\rte/sc_engine.h ****  * Depending on the configured conversion or scaling function the raw_value will be calculated.
 155:.\source\rte/sc_engine.h ****  * Signal status will change from RTE_SIGNALSTATUS_STARTUP to RTE_SIGNALSTATUS_INITIALIZED.
 156:.\source\rte/sc_engine.h ****  *
 157:.\source\rte/sc_engine.h ****  * @param  SC_ENGINE_t * const signal: Pointer to the signal object which will be initialised
 158:.\source\rte/sc_engine.h ****  * @param const sc_engine_data_t * const value: Pointer to initial value of the application data
 159:.\source\rte/sc_engine.h ****  * @return RC_t: standard return code, currently only RC_SUCCESS
 160:.\source\rte/sc_engine.h ****  *
 161:.\source\rte/sc_engine.h ****  **/
 162:.\source\rte/sc_engine.h **** inline RC_t RTE_SC_ENGINE_init( SC_ENGINE_t * const signal, const SC_ENGINE_data_t * const value )
 163:.\source\rte/sc_engine.h **** {                                                                                                  
 164:.\source\rte/sc_engine.h **** 
 165:.\source\rte/sc_engine.h ****    RC_t ret = RC_SUCCESS;
 166:.\source\rte/sc_engine.h **** 
 167:.\source\rte/sc_engine.h ****    //Set value and raw value
 168:.\source\rte/sc_engine.h ****    signal->value  = *value;
 169:.\source\rte/sc_engine.h ****    signal->age    = 0;
 170:.\source\rte/sc_engine.h ****    signal->status = RTE_SIGNALSTATUS_INITIALIZED;
 171:.\source\rte/sc_engine.h **** 
 172:.\source\rte/sc_engine.h ****    return ret;
 173:.\source\rte/sc_engine.h **** }
 174:.\source\rte/sc_engine.h **** 
 175:.\source\rte/sc_engine.h **** /**************************************************************************************************
 176:.\source\rte/sc_engine.h **** /* Status and timeout control																						*/
 177:.\source\rte/sc_engine.h **** /**************************************************************************************************
 178:.\source\rte/sc_engine.h **** 
 179:.\source\rte/sc_engine.h **** /**
 180:.\source\rte/sc_engine.h ****  *  Returns the current signal status of the passed signal instance.
 181:.\source\rte/sc_engine.h ****  *
 182:.\source\rte/sc_engine.h ****  * @param  SC_ENGINE_t * const signal: Pointer to the signal object
 183:.\source\rte/sc_engine.h ****  * @return  sig_status_t: The current signal status
 184:.\source\rte/sc_engine.h ****  *
 185:.\source\rte/sc_engine.h ****  **/
 186:.\source\rte/sc_engine.h **** inline RTE_signalStatus_t RTE_SC_ENGINE_getStatus( const SC_ENGINE_t * const signal )
 187:.\source\rte/sc_engine.h **** {
 188:.\source\rte/sc_engine.h ****    return signal->status;
 189:.\source\rte/sc_engine.h **** }
 190:.\source\rte/sc_engine.h **** 
 191:.\source\rte/sc_engine.h **** 
 192:.\source\rte/sc_engine.h **** /**
 193:.\source\rte/sc_engine.h ****  *  Sets a new signal status of the passed signal instance by passing the new status.
 194:.\source\rte/sc_engine.h ****  *
 195:.\source\rte/sc_engine.h ****  * @param  SC_ENGINE_t * const signal: Pointer to the signal object
 196:.\source\rte/sc_engine.h ****  * @param  const sig_status_t status: New signal status
 197:.\source\rte/sc_engine.h ****  * @return RC_t: standard return code, currently only RC_SUCCESS
 198:.\source\rte/sc_engine.h ****  *
 199:.\source\rte/sc_engine.h ****  */
 200:.\source\rte/sc_engine.h **** inline RC_t RTE_SC_ENGINE_setStatus( SC_ENGINE_t * const signal, const RTE_signalStatus_t status )
 201:.\source\rte/sc_engine.h **** {
 202:.\source\rte/sc_engine.h ****    signal->status = status;
 203:.\source\rte/sc_engine.h ****    size_t taskNum=0;
 204:.\source\rte/sc_engine.h ****    
 205:.\source\rte/sc_engine.h ****    //Fire error events in case of invalid state
 206:.\source\rte/sc_engine.h ****    if (signal->status == RTE_SIGNALSTATUS_INVALID)
 207:.\source\rte/sc_engine.h ****    {
ARM GAS  C:\Users\JASON\AppData\Local\Temp\ccn8PO30.s 			page 12


 208:.\source\rte/sc_engine.h **** 	    //Pointer to the Taskarray, containing the tasks receiving the onUpdate events
 209:.\source\rte/sc_engine.h **** 		TaskTypeArray* pTaskArray = signal->pSigCfg->onErrorTasks;
 210:.\source\rte/sc_engine.h **** 
 211:.\source\rte/sc_engine.h **** 		if (NULL!=signal->pSigCfg->evOnError && NULL != pTaskArray){
 212:.\source\rte/sc_engine.h **** 			for( taskNum=0 ; taskNum < signal->pSigCfg->onErrorTaskCount ;taskNum++){
 213:.\source\rte/sc_engine.h **** 				TaskType task = (*pTaskArray)[taskNum];
 214:.\source\rte/sc_engine.h **** 				SetEvent( task, signal->pSigCfg->evOnError);
 215:.\source\rte/sc_engine.h **** 			}
 216:.\source\rte/sc_engine.h **** 		}
 217:.\source\rte/sc_engine.h ****    }
 218:.\source\rte/sc_engine.h ****    
 219:.\source\rte/sc_engine.h ****    return RC_SUCCESS;
 220:.\source\rte/sc_engine.h **** }
 221:.\source\rte/sc_engine.h **** 
 222:.\source\rte/sc_engine.h **** 
 223:.\source\rte/sc_engine.h **** /**
 224:.\source\rte/sc_engine.h ****  * Returns the count of refreshing trials (refresh, set or set_raw) that failed.
 225:.\source\rte/sc_engine.h ****  * Prerquisite: The signal is refreshed cyclically
 226:.\source\rte/sc_engine.h ****  *
 227:.\source\rte/sc_engine.h ****  * @param  SC_ENGINE_t * const signal: Pointer to the signal object
 228:.\source\rte/sc_engine.h ****  * @return uint32_t: Number of cycles since the signal has been updated for the last time
 229:.\source\rte/sc_engine.h ****  */
 230:.\source\rte/sc_engine.h **** inline uint32_t RTE_SC_ENGINE_getAge( const SC_ENGINE_t * const signal )
 231:.\source\rte/sc_engine.h **** {
 232:.\source\rte/sc_engine.h ****    return signal->age;
 233:.\source\rte/sc_engine.h **** }
 234:.\source\rte/sc_engine.h **** 
 235:.\source\rte/sc_engine.h **** /**
 236:.\source\rte/sc_engine.h ****  * Should be called by application or driver if no new value can be provided.
 237:.\source\rte/sc_engine.h ****  * @param  SC_ENGINE_t * const signal: Pointer to the signal object
 238:.\source\rte/sc_engine.h ****  * @param uint32_t increment: incrementvalue, typically in [ms]
 239:.\source\rte/sc_engine.h ****  * @return void
 240:.\source\rte/sc_engine.h ****  */
 241:.\source\rte/sc_engine.h **** inline void RTE_SC_ENGINE_incAge(  SC_ENGINE_t * const signal , uint32_t increment)
 242:.\source\rte/sc_engine.h **** {
 243:.\source\rte/sc_engine.h **** 	   //Hack....
 244:.\source\rte/sc_engine.h **** 	   if ( 0xFFFF0000 > (signal->age + increment) )
 245:.\source\rte/sc_engine.h **** 	   {
 246:.\source\rte/sc_engine.h **** 	      signal->age += increment;
 247:.\source\rte/sc_engine.h **** 	   }
 248:.\source\rte/sc_engine.h **** }
 249:.\source\rte/sc_engine.h **** 
 250:.\source\rte/sc_engine.h **** 
 251:.\source\rte/sc_engine.h **** /**************************************************************************************************
 252:.\source\rte/sc_engine.h **** /* Application Data read/write Interface																			*/
 253:.\source\rte/sc_engine.h **** /**************************************************************************************************
 254:.\source\rte/sc_engine.h **** 
 255:.\source\rte/sc_engine.h **** /**
 256:.\source\rte/sc_engine.h ****  * Returns the current application value of the passed signal instance.
 257:.\source\rte/sc_engine.h ****  *
 258:.\source\rte/sc_engine.h ****  * @param  SC_ENGINE_t * const signal: Pointer to the signal object
 259:.\source\rte/sc_engine.h ****  * @return sc_engine_data_t: current value of the application data buffer
 260:.\source\rte/sc_engine.h ****  *
 261:.\source\rte/sc_engine.h ****  **/
 262:.\source\rte/sc_engine.h **** inline SC_ENGINE_data_t RTE_SC_ENGINE_get( const SC_ENGINE_t * const signal )
 263:.\source\rte/sc_engine.h **** {               
 264:.\source\rte/sc_engine.h ****    //Todo: Critical region cannot be protected using return values																						
ARM GAS  C:\Users\JASON\AppData\Local\Temp\ccn8PO30.s 			page 13


 265:.\source\rte/sc_engine.h ****    return signal->value;                                                                           
 266:.\source\rte/sc_engine.h **** }                                                                                                  
 267:.\source\rte/sc_engine.h ****                                                                                                    
 268:.\source\rte/sc_engine.h **** /**
 269:.\source\rte/sc_engine.h ****  * Returns the current application value of the passed signal instance threadsafe.
 270:.\source\rte/sc_engine.h ****  *
 271:.\source\rte/sc_engine.h ****  * @param  SC_ENGINE_t * const signal: Pointer to the signal object
 272:.\source\rte/sc_engine.h ****  * @param  SC_ENGINE_data_t* data: Pointer to the return data Pointer to the signal object
 273:.\source\rte/sc_engine.h ****  * @return RC_SUCCESS
 274:.\source\rte/sc_engine.h ****  *
 275:.\source\rte/sc_engine.h ****  **/
 276:.\source\rte/sc_engine.h **** inline RC_t RTE_SC_ENGINE_getThreadSafe( const SC_ENGINE_t * const signal, SC_ENGINE_data_t * const
 277:.\source\rte/sc_engine.h **** {    
 278:.\source\rte/sc_engine.h ****    if (TRUE == signal->pSigCfg->resourceActive) GetResource(signal->pSigCfg->resource);
 279:.\source\rte/sc_engine.h ****    *data = signal->value;
 280:.\source\rte/sc_engine.h ****    if (TRUE == signal->pSigCfg->resourceActive) ReleaseResource(signal->pSigCfg->resource);        
 281:.\source\rte/sc_engine.h **** 
 282:.\source\rte/sc_engine.h ****    return RC_SUCCESS;                                                                   
 283:.\source\rte/sc_engine.h ****    
 284:.\source\rte/sc_engine.h **** }                                                                                                  
 285:.\source\rte/sc_engine.h ****                                                                                                    
 286:.\source\rte/sc_engine.h **** /**
 287:.\source\rte/sc_engine.h ****  * Sets a new application value to the passed signal instance by passing the new value.
 288:.\source\rte/sc_engine.h ****  * The corresponding driver raw value will be calculated immediately by using the default conversio
 289:.\source\rte/sc_engine.h ****  * signal specific scaling function.
 290:.\source\rte/sc_engine.h ****  * The signal age will be set to 0 and the new status will be 'RTE_SIGNALSTATUS_VALID'.
 291:.\source\rte/sc_engine.h ****  *
 292:.\source\rte/sc_engine.h ****  * @param  SC_ENGINE_t * const signal: Pointer to the signal object
 293:.\source\rte/sc_engine.h ****  * @param  sc_engine_data_t const value: value for the application data buffer
 294:.\source\rte/sc_engine.h ****  * @return RC_t: standard return code, currently only RC_SUCCESS
 295:.\source\rte/sc_engine.h ****  *
 296:.\source\rte/sc_engine.h ****  **/
 297:.\source\rte/sc_engine.h **** inline RC_t RTE_SC_ENGINE_set(SC_ENGINE_t * const signal, const SC_ENGINE_data_t value  )
 298:.\source\rte/sc_engine.h **** {
 299:.\source\rte/sc_engine.h **** 
 300:.\source\rte/sc_engine.h ****    RC_t ret = RC_SUCCESS;
 301:.\source\rte/sc_engine.h ****    size_t taskNum=0;
 302:.\source\rte/sc_engine.h **** 
 303:.\source\rte/sc_engine.h **** 
 304:.\source\rte/sc_engine.h ****    if (TRUE == signal->pSigCfg->resourceActive) GetResource(signal->pSigCfg->resource);
 107              		.loc 3 304 0
 108 0052 274B     		ldr	r3, .L13+24
 109 0054 9A68     		ldr	r2, [r3, #8]
 305:.\source\rte/sc_engine.h ****    signal->value  = value;
 110              		.loc 3 305 0
 111 0056 1970     		strb	r1, [r3]
 306:.\source\rte/sc_engine.h ****    signal->age    = 0;
 112              		.loc 3 306 0
 113 0058 0021     		movs	r1, #0
 114 005a 5960     		str	r1, [r3, #4]
 307:.\source\rte/sc_engine.h ****    signal->status = RTE_SIGNALSTATUS_VALID;
 115              		.loc 3 307 0
 116 005c 0221     		movs	r1, #2
 117 005e 5970     		strb	r1, [r3, #1]
 308:.\source\rte/sc_engine.h ****    if (TRUE == signal->pSigCfg->resourceActive) ReleaseResource(signal->pSigCfg->resource);
 309:.\source\rte/sc_engine.h **** 
 310:.\source\rte/sc_engine.h ****    //Pointer to the Taskarray, containing the tasks receiving the onUpdate events
ARM GAS  C:\Users\JASON\AppData\Local\Temp\ccn8PO30.s 			page 14


 311:.\source\rte/sc_engine.h ****    TaskTypeArray* pTaskArray = signal->pSigCfg->onUpdateTasks;
 118              		.loc 3 311 0
 119 0060 5569     		ldr	r5, [r2, #20]
 120              	.LVL13:
 312:.\source\rte/sc_engine.h **** 
 313:.\source\rte/sc_engine.h ****    if (NULL!=signal->pSigCfg->evOnUpdate && NULL != pTaskArray){
 121              		.loc 3 313 0
 122 0062 9368     		ldr	r3, [r2, #8]
 123 0064 73B1     		cbz	r3, .L5
 124 0066 3DB9     		cbnz	r5, .L10
 125 0068 0CE0     		b	.L5
 126              	.LVL14:
 127              	.L7:
 128              	.LBB19:
 314:.\source\rte/sc_engine.h ****       for( taskNum=0 ; taskNum < signal->pSigCfg->onUpdateTaskCount ;taskNum++){
 315:.\source\rte/sc_engine.h **** 		  
 316:.\source\rte/sc_engine.h ****           TaskType task = (*pTaskArray)[taskNum];
 317:.\source\rte/sc_engine.h **** 	      SetEvent( task, signal->pSigCfg->evOnUpdate);
 129              		.loc 3 317 0
 130 006a 9968     		ldr	r1, [r3, #8]
 131 006c 55F82400 		ldr	r0, [r5, r4, lsl #2]
 132 0070 FFF7FEFF 		bl	EE_oo_SetEvent
 133              	.LVL15:
 134              	.LBE19:
 314:.\source\rte/sc_engine.h ****       for( taskNum=0 ; taskNum < signal->pSigCfg->onUpdateTaskCount ;taskNum++){
 135              		.loc 3 314 0
 136 0074 0134     		adds	r4, r4, #1
 137              	.LVL16:
 138 0076 00E0     		b	.L6
 139              	.LVL17:
 140              	.L10:
 313:.\source\rte/sc_engine.h ****       for( taskNum=0 ; taskNum < signal->pSigCfg->onUpdateTaskCount ;taskNum++){
 141              		.loc 3 313 0
 142 0078 0024     		movs	r4, #0
 143              	.LVL18:
 144              	.L6:
 314:.\source\rte/sc_engine.h ****       for( taskNum=0 ; taskNum < signal->pSigCfg->onUpdateTaskCount ;taskNum++){
 145              		.loc 3 314 0
 146 007a 1D4B     		ldr	r3, .L13+24
 147 007c 9B68     		ldr	r3, [r3, #8]
 148 007e 1A69     		ldr	r2, [r3, #16]
 149 0080 9442     		cmp	r4, r2
 150 0082 F2D3     		bcc	.L7
 151              	.LVL19:
 152              	.L5:
 153              	.LBE18:
 154              	.LBE17:
 155              	.LBB20:
 156              	.LBB21:
 318:.\source\rte/sc_engine.h ****       }
 319:.\source\rte/sc_engine.h ****    }
 320:.\source\rte/sc_engine.h **** 
 321:.\source\rte/sc_engine.h ****    return ret;
 322:.\source\rte/sc_engine.h **** }                                                                                                  
 323:.\source\rte/sc_engine.h ****                                                                                                    
 324:.\source\rte/sc_engine.h ****                                                                                                    
 325:.\source\rte/sc_engine.h **** /**************************************************************************************************
ARM GAS  C:\Users\JASON\AppData\Local\Temp\ccn8PO30.s 			page 15


 326:.\source\rte/sc_engine.h **** /* Call functions to the connected drivers																			*/
 327:.\source\rte/sc_engine.h **** /**************************************************************************************************
 328:.\source\rte/sc_engine.h **** 
 329:.\source\rte/sc_engine.h ****                                                                                                    
 330:.\source\rte/sc_engine.h **** /**
 331:.\source\rte/sc_engine.h ****  *  Calls the connected driver interface to get a new value.
 332:.\source\rte/sc_engine.h ****  *
 333:.\source\rte/sc_engine.h ****  * @param SC_ENGINE_t * const signal: Pointer to the signal object
 334:.\source\rte/sc_engine.h ****  * @return  RC_t: Return value of the driver call
 335:.\source\rte/sc_engine.h ****  *
 336:.\source\rte/sc_engine.h ****  */
 337:.\source\rte/sc_engine.h **** inline RC_t RTE_SC_ENGINE_pullPort( SC_ENGINE_t * const signal )
 338:.\source\rte/sc_engine.h **** {                                                                                                  
 339:.\source\rte/sc_engine.h ****    RC_t ret = RC_SUCCESS;
 340:.\source\rte/sc_engine.h **** 
 341:.\source\rte/sc_engine.h ****                                                                                                    
 342:.\source\rte/sc_engine.h ****    if ( NULL != signal->pSigCfg->inDriver )
 343:.\source\rte/sc_engine.h ****    {
 344:.\source\rte/sc_engine.h **** 	  SC_ENGINE_data_t value = signal->value;
 345:.\source\rte/sc_engine.h ****       ret = signal->pSigCfg->inDriver(&value);
 346:.\source\rte/sc_engine.h ****                                                                                                    
 347:.\source\rte/sc_engine.h ****       if ( ret == RC_SUCCESS )                                                                     
 348:.\source\rte/sc_engine.h ****       {
 349:.\source\rte/sc_engine.h ****     	  //Critical Section
 350:.\source\rte/sc_engine.h ****     	  RTE_SC_ENGINE_set(signal, value);
 351:.\source\rte/sc_engine.h ****       }
 352:.\source\rte/sc_engine.h ****       else
 353:.\source\rte/sc_engine.h ****       {
 354:.\source\rte/sc_engine.h **** 		  //Signal is invalid. Error event (if present) will be fired
 355:.\source\rte/sc_engine.h **** 		  RTE_SC_ENGINE_setStatus(signal, RTE_SIGNALSTATUS_INVALID);
 356:.\source\rte/sc_engine.h ****       }
 357:.\source\rte/sc_engine.h **** 
 358:.\source\rte/sc_engine.h ****    }                                                                                               
 359:.\source\rte/sc_engine.h ****                                                                                                    
 360:.\source\rte/sc_engine.h ****    return ret;                                                                                     
 361:.\source\rte/sc_engine.h **** }                                                                                                  
 362:.\source\rte/sc_engine.h ****                                                                                                    
 363:.\source\rte/sc_engine.h **** /**
 364:.\source\rte/sc_engine.h ****  *  Calls the connected driver interfaces to send a value. Value will not be sent if it is INVALID.
 365:.\source\rte/sc_engine.h ****  *
 366:.\source\rte/sc_engine.h ****  * @param SC_ENGINE_t * const signal: Pointer to the signal object
 367:.\source\rte/sc_engine.h ****  * @return  RC_t: Return value of the driver call
 368:.\source\rte/sc_engine.h ****  *
 369:.\source\rte/sc_engine.h ****  **/
 370:.\source\rte/sc_engine.h **** inline RC_t RTE_SC_ENGINE_pushPort( const SC_ENGINE_t * const signal )
 371:.\source\rte/sc_engine.h **** {                                                                                                  
 372:.\source\rte/sc_engine.h ****    RC_t ret = RC_ERROR;
 373:.\source\rte/sc_engine.h **** 
 374:.\source\rte/sc_engine.h ****    if (RTE_SIGNALSTATUS_VALID == signal->status)
 157              		.loc 3 374 0
 158 0084 1A4B     		ldr	r3, .L13+24
 159 0086 5B78     		ldrb	r3, [r3, #1]	@ zero_extendqisi2
 160 0088 022B     		cmp	r3, #2
 161 008a 04D1     		bne	.L11
 375:.\source\rte/sc_engine.h ****    {
 376:.\source\rte/sc_engine.h **** 	   ret = signal->pSigCfg->outDriver(&(signal->value));
 162              		.loc 3 376 0
ARM GAS  C:\Users\JASON\AppData\Local\Temp\ccn8PO30.s 			page 16


 163 008c 1848     		ldr	r0, .L13+24
 164 008e 8368     		ldr	r3, [r0, #8]
 165 0090 5B68     		ldr	r3, [r3, #4]
 166 0092 9847     		blx	r3
 167              	.LVL20:
 168 0094 01E0     		b	.L8
 169              	.LVL21:
 170              	.L11:
 372:.\source\rte/sc_engine.h **** 
 171              		.loc 3 372 0
 172 0096 4FF0FF30 		mov	r0, #-1
 173              	.LVL22:
 174              	.L8:
 175              	.LBE21:
 176              	.LBE20:
  83:source\asw/swc_engine.c ****     }
  84:source\asw/swc_engine.c ****     
  85:source\asw/swc_engine.c ****     /**
  86:source\asw/swc_engine.c ****      * Engine value updated.
  87:source\asw/swc_engine.c ****      **/
  88:source\asw/swc_engine.c ****     RTE_SC_ENGINE_set(&SO_ENGINE_signal, engineValue);
  89:source\asw/swc_engine.c ****     
  90:source\asw/swc_engine.c ****     /**
  91:source\asw/swc_engine.c ****      * Engine value sent to the hardware.
  92:source\asw/swc_engine.c ****      **/
  93:source\asw/swc_engine.c ****     res = RTE_SC_ENGINE_pushPort(&SO_ENGINE_signal);
  94:source\asw/swc_engine.c ****     /**
  95:source\asw/swc_engine.c ****      * Error Handling.
  96:source\asw/swc_engine.c ****      **/
  97:source\asw/swc_engine.c ****     if(res != RC_SUCCESS)
 177              		.loc 1 97 0
 178 009a 30B1     		cbz	r0, .L9
  98:source\asw/swc_engine.c ****     {
  99:source\asw/swc_engine.c ****         UART_LOG_PutString("Engine value was not written into hardware. \n");
 179              		.loc 1 99 0
 180 009c 1548     		ldr	r0, .L13+28
 181 009e FFF7FEFF 		bl	UART_LOG_PutString
 182              	.LVL23:
 100:source\asw/swc_engine.c ****         LED_Set(LED_YELLOW, LED_ON);
 183              		.loc 1 100 0
 184 00a2 0121     		movs	r1, #1
 185 00a4 0846     		mov	r0, r1
 186 00a6 FFF7FEFF 		bl	LED_Set
 187              	.LVL24:
 188              	.L9:
 101:source\asw/swc_engine.c ****     }
 102:source\asw/swc_engine.c ****     
 103:source\asw/swc_engine.c ****     /**
 104:source\asw/swc_engine.c ****      * Engine value is used in PWM of Green channel of RGB LED.
 105:source\asw/swc_engine.c ****      **/
 106:source\asw/swc_engine.c ****     LED_RGB_Set(0,engineValue.engine,0);
 189              		.loc 1 106 0
 190 00aa 0D4C     		ldr	r4, .L13+8
 191 00ac 0022     		movs	r2, #0
 192 00ae 14F8041B 		ldrb	r1, [r4], #4	@ zero_extendqisi2
 193 00b2 1046     		mov	r0, r2
 194 00b4 FFF7FEFF 		bl	LED_RGB_Set
ARM GAS  C:\Users\JASON\AppData\Local\Temp\ccn8PO30.s 			page 17


 195              	.LVL25:
 107:source\asw/swc_engine.c ****     
 108:source\asw/swc_engine.c ****     /**
 109:source\asw/swc_engine.c ****      * Display Engine value.
 110:source\asw/swc_engine.c ****      **/
 111:source\asw/swc_engine.c ****     UART_LOG_PutString("Engine : ");
 196              		.loc 1 111 0
 197 00b8 0F48     		ldr	r0, .L13+32
 198 00ba FFF7FEFF 		bl	UART_LOG_PutString
 199              	.LVL26:
 112:source\asw/swc_engine.c ****     intToASCII((uint32_t)RTE_SC_ENGINE_get(&SO_ENGINE_signal).engine, (uint8_t*)&asciiConvert, 4);
 200              		.loc 1 112 0
 201 00be 0422     		movs	r2, #4
 202 00c0 2146     		mov	r1, r4
 203 00c2 0B4B     		ldr	r3, .L13+24
 204 00c4 1878     		ldrb	r0, [r3]	@ zero_extendqisi2
 205 00c6 FFF7FEFF 		bl	intToASCII
 206              	.LVL27:
 113:source\asw/swc_engine.c ****     UART_LOG_PutString(asciiConvert);
 207              		.loc 1 113 0
 208 00ca 2046     		mov	r0, r4
 209 00cc FFF7FEFF 		bl	UART_LOG_PutString
 210              	.LVL28:
 114:source\asw/swc_engine.c ****     UART_LOG_PutString("\n");
 211              		.loc 1 114 0
 212 00d0 0A48     		ldr	r0, .L13+36
 213 00d2 FFF7FEFF 		bl	UART_LOG_PutString
 214              	.LVL29:
 215 00d6 38BD     		pop	{r3, r4, r5, pc}
 216              	.L14:
 217              		.align	2
 218              	.L13:
 219 00d8 00000000 		.word	.LC0
 220 00dc 00000000 		.word	SO_SPEED_signal
 221 00e0 00000000 		.word	.LANCHOR0
 222 00e4 2C000000 		.word	.LC1
 223 00e8 40000000 		.word	.LC2
 224 00ec 60000000 		.word	.LC3
 225 00f0 00000000 		.word	SO_ENGINE_signal
 226 00f4 68000000 		.word	.LC4
 227 00f8 98000000 		.word	.LC5
 228 00fc A4000000 		.word	.LC6
 229              		.cfi_endproc
 230              	.LFE150:
 231              		.size	ENGINE_setEngine_run, .-ENGINE_setEngine_run
 232              		.section	.rodata.str1.4,"aMS",%progbits,1
 233              		.align	2
 234              	.LC0:
 235 0000 57617463 		.ascii	"Watchdog Status register update failed. \012\000"
 235      68646F67 
 235      20537461 
 235      74757320 
 235      72656769 
 236 002a 0000     		.space	2
 237              	.LC1:
 238 002c 454E4749 		.ascii	"ENGINE UPDATED. \012\000"
 238      4E452055 
ARM GAS  C:\Users\JASON\AppData\Local\Temp\ccn8PO30.s 			page 18


 238      50444154 
 238      45442E20 
 238      0A00
 239 003e 0000     		.space	2
 240              	.LC2:
 241 0040 53706565 		.ascii	"Speed Signal Age too old ie. \000"
 241      64205369 
 241      676E616C 
 241      20416765 
 241      20746F6F 
 242 005e 0000     		.space	2
 243              	.LC3:
 244 0060 6D732E20 		.ascii	"ms. \012\000"
 244      0A00
 245 0066 0000     		.space	2
 246              	.LC4:
 247 0068 456E6769 		.ascii	"Engine value was not written into hardware. \012\000"
 247      6E652076 
 247      616C7565 
 247      20776173 
 247      206E6F74 
 248 0096 0000     		.space	2
 249              	.LC5:
 250 0098 456E6769 		.ascii	"Engine : \000"
 250      6E65203A 
 250      2000
 251 00a2 0000     		.space	2
 252              	.LC6:
 253 00a4 0A00     		.ascii	"\012\000"
 254              		.bss
 255              		.align	2
 256              		.set	.LANCHOR0,. + 0
 257              		.type	engineValue.6992, %object
 258              		.size	engineValue.6992, 1
 259              	engineValue.6992:
 260 0000 00       		.space	1
 261 0001 000000   		.space	3
 262              		.type	asciiConvert.6994, %object
 263              		.size	asciiConvert.6994, 30
 264              	asciiConvert.6994:
 265 0004 00000000 		.space	30
 265      00000000 
 265      00000000 
 265      00000000 
 265      00000000 
 266              		.text
 267              	.Letext0:
 268              		.file 4 "c:\\program files (x86)\\cypress\\psoc creator\\4.4\\psoc creator\\import\\gnu\\arm\\5.4.
 269              		.file 5 "c:\\program files (x86)\\cypress\\psoc creator\\4.4\\psoc creator\\import\\gnu\\arm\\5.4.
 270              		.file 6 "c:\\program files (x86)\\cypress\\psoc creator\\4.4\\psoc creator\\import\\gnu\\arm\\5.4.
 271              		.file 7 "Generated_Source\\PSoC5/ErikaOS_common_ee_types.inc"
 272              		.file 8 "Generated_Source\\PSoC5/ErikaOS_cortex_mx_ee_cpu.inc"
 273              		.file 9 "Generated_Source\\PSoC5/ErikaOS_ee_oo_common.inc"
 274              		.file 10 ".\\source\\bsw/global.h"
 275              		.file 11 ".\\source\\rte/rte_types.h"
 276              		.file 12 ".\\source\\rte/rte.h"
 277              		.file 13 ".\\source\\bsw\\LabBoard/led.h"
ARM GAS  C:\Users\JASON\AppData\Local\Temp\ccn8PO30.s 			page 19


 278              		.file 14 ".\\source\\rte/sc_speed_type.h"
 279              		.file 15 ".\\source\\rte/sc_engine_type.h"
 280              		.file 16 "Generated_Source\\PSoC5/ErikaOS_ee_oo_intfunc.inc"
 281              		.file 17 "Generated_Source\\PSoC5/ErikaOS_cortex_mx_ee_context.inc"
 282              		.file 18 "Generated_Source\\PSoC5/ErikaOS_common_ee_primitives.inc"
 283              		.file 19 "Generated_Source\\PSoC5/core_cm3.h"
 284              		.file 20 ".\\source\\rte/sp_common.h"
 285              		.file 21 "Generated_Source\\PSoC5/ErikaOS_ee_oo_kernel.inc"
 286              		.file 22 ".\\source\\bsw/watchdog.h"
 287              		.file 23 "Generated_Source\\PSoC5/UART_LOG.h"
 288              		.file 24 ".\\source\\bsw/intToASCII.h"