ARM GAS  C:\Users\JASON\AppData\Local\Temp\ccTyvOII.s 			page 1


   1              		.syntax unified
   2              		.cpu cortex-m3
   3              		.fpu softvfp
   4              		.eabi_attribute 20, 1
   5              		.eabi_attribute 21, 1
   6              		.eabi_attribute 23, 3
   7              		.eabi_attribute 24, 1
   8              		.eabi_attribute 25, 1
   9              		.eabi_attribute 26, 1
  10              		.eabi_attribute 30, 1
  11              		.eabi_attribute 34, 1
  12              		.eabi_attribute 18, 4
  13              		.thumb
  14              		.syntax unified
  15              		.file	"swc_brakelight.c"
  16              		.text
  17              	.Ltext0:
  18              		.cfi_sections	.debug_frame
  19              		.section	.text.BRAKELIGHT_setBrakeLight_run,"ax",%progbits
  20              		.align	2
  21              		.global	BRAKELIGHT_setBrakeLight_run
  22              		.thumb
  23              		.thumb_func
  24              		.type	BRAKELIGHT_setBrakeLight_run, %function
  25              	BRAKELIGHT_setBrakeLight_run:
  26              	.LFB150:
  27              		.file 1 "source\\asw\\swc_brakelight.c"
   1:source\asw/swc_brakelight.c **** 
   2:source\asw/swc_brakelight.c **** 
   3:source\asw/swc_brakelight.c **** /*
   4:source\asw/swc_brakelight.c ****  * Filename: swc_brakelight.c
   5:source\asw/swc_brakelight.c ****  *
   6:source\asw/swc_brakelight.c ****  * Author: Autogenerated by H-DA RTE Generator, (c) Prof. Fromm
   7:source\asw/swc_brakelight.c ****  */
   8:source\asw/swc_brakelight.c **** 
   9:source\asw/swc_brakelight.c **** #include "project.h"
  10:source\asw/swc_brakelight.c **** #include "global.h"
  11:source\asw/swc_brakelight.c **** #include "rte.h"
  12:source\asw/swc_brakelight.c **** #include "rte_types.h"
  13:source\asw/swc_brakelight.c **** #include "swc_brakelight.h"
  14:source\asw/swc_brakelight.c **** 
  15:source\asw/swc_brakelight.c **** 
  16:source\asw/swc_brakelight.c **** 
  17:source\asw/swc_brakelight.c **** /* USER CODE START SWC_BRAKELIGHT_INCLUDE */
  18:source\asw/swc_brakelight.c **** 
  19:source\asw/swc_brakelight.c **** #include "intToASCII.h"
  20:source\asw/swc_brakelight.c **** #include "led.h"
  21:source\asw/swc_brakelight.c **** #include "watchdog.h"
  22:source\asw/swc_brakelight.c **** 
  23:source\asw/swc_brakelight.c **** /* USER CODE END SWC_BRAKELIGHT_INCLUDE */
  24:source\asw/swc_brakelight.c **** 
  25:source\asw/swc_brakelight.c **** 
  26:source\asw/swc_brakelight.c **** #include "sp_common.h"
  27:source\asw/swc_brakelight.c **** 
  28:source\asw/swc_brakelight.c **** /* USER CODE START SWC_BRAKELIGHT_USERDEFINITIONS */
  29:source\asw/swc_brakelight.c **** 
  30:source\asw/swc_brakelight.c **** /* USER CODE END SWC_BRAKELIGHT_USERDEFINITIONS */
ARM GAS  C:\Users\JASON\AppData\Local\Temp\ccTyvOII.s 			page 2


  31:source\asw/swc_brakelight.c **** 
  32:source\asw/swc_brakelight.c **** 
  33:source\asw/swc_brakelight.c **** 
  34:source\asw/swc_brakelight.c **** /*
  35:source\asw/swc_brakelight.c **** * component: swc_brakeLight
  36:source\asw/swc_brakelight.c **** * cycletime: 0
  37:source\asw/swc_brakelight.c **** * description: Runnable for setting the brake light.
  38:source\asw/swc_brakelight.c **** * events: ev_speed_onData
  39:source\asw/swc_brakelight.c **** * name: BRAKELIGHT_setBrakeLight_run
  40:source\asw/swc_brakelight.c **** * shortname: setBrakeLight
  41:source\asw/swc_brakelight.c **** * signalIN: so_speed
  42:source\asw/swc_brakelight.c **** * signalOUT: so_brakeLight
  43:source\asw/swc_brakelight.c **** * task: tsk_inputoutput
  44:source\asw/swc_brakelight.c **** */
  45:source\asw/swc_brakelight.c **** void BRAKELIGHT_setBrakeLight_run(RTE_event ev){
  28              		.loc 1 45 0
  29              		.cfi_startproc
  30              		@ args = 0, pretend = 0, frame = 0
  31              		@ frame_needed = 0, uses_anonymous_args = 0
  32              	.LVL0:
  33 0000 38B5     		push	{r3, r4, r5, lr}
  34              		.cfi_def_cfa_offset 16
  35              		.cfi_offset 3, -16
  36              		.cfi_offset 4, -12
  37              		.cfi_offset 5, -8
  38              		.cfi_offset 14, -4
  46:source\asw/swc_brakelight.c **** 	
  47:source\asw/swc_brakelight.c **** 	/* USER CODE START BRAKELIGHT_setBrakeLight_run */
  48:source\asw/swc_brakelight.c ****     
  49:source\asw/swc_brakelight.c ****     static RC_t res = RC_SUCCESS;
  50:source\asw/swc_brakelight.c ****     
  51:source\asw/swc_brakelight.c ****     /*
  52:source\asw/swc_brakelight.c ****      * Updating the Alive Monitoring register. 
  53:source\asw/swc_brakelight.c ****      * Bit Position 3 - RUNNABLE_SETBRAKELIGHT
  54:source\asw/swc_brakelight.c ****      **/
  55:source\asw/swc_brakelight.c ****     res = WD_Alive(3);
  39              		.loc 1 55 0
  40 0002 0320     		movs	r0, #3
  41              	.LVL1:
  42 0004 FFF7FEFF 		bl	WD_Alive
  43              	.LVL2:
  56:source\asw/swc_brakelight.c ****     /**
  57:source\asw/swc_brakelight.c ****      * Error Handling
  58:source\asw/swc_brakelight.c ****      **/
  59:source\asw/swc_brakelight.c ****     if(res != RC_SUCCESS)
  44              		.loc 1 59 0
  45 0008 10B1     		cbz	r0, .L2
  60:source\asw/swc_brakelight.c ****     {
  61:source\asw/swc_brakelight.c ****         UART_LOG_PutString("Watchdog Status register update failed. \n");   
  46              		.loc 1 61 0
  47 000a 2548     		ldr	r0, .L13
  48 000c FFF7FEFF 		bl	UART_LOG_PutString
  49              	.LVL3:
  50              	.L2:
  62:source\asw/swc_brakelight.c ****     }
  63:source\asw/swc_brakelight.c ****     
  64:source\asw/swc_brakelight.c ****     static SC_BRAKELIGHT_data_t brakelight_st = SC_BRAKELIGHT_INIT_DATA;
ARM GAS  C:\Users\JASON\AppData\Local\Temp\ccTyvOII.s 			page 3


  65:source\asw/swc_brakelight.c ****     
  66:source\asw/swc_brakelight.c ****     /**
  67:source\asw/swc_brakelight.c ****      * The brake light 'RED LED' turns on when the speed is 0.
  68:source\asw/swc_brakelight.c ****      * Else it remains turned off.
  69:source\asw/swc_brakelight.c ****      **/
  70:source\asw/swc_brakelight.c ****     if(RTE_SC_SPEED_get(&SO_SPEED_signal).speed == 0)
  51              		.loc 1 70 0
  52 0010 244B     		ldr	r3, .L13+4
  53 0012 1B78     		ldrb	r3, [r3]	@ zero_extendqisi2
  54 0014 53B9     		cbnz	r3, .L3
  71:source\asw/swc_brakelight.c ****     {
  72:source\asw/swc_brakelight.c ****         brakelight_st.brakeLight = TRUE;
  55              		.loc 1 72 0
  56 0016 0124     		movs	r4, #1
  57 0018 234B     		ldr	r3, .L13+8
  58 001a 1C70     		strb	r4, [r3]
  73:source\asw/swc_brakelight.c ****         UART_LOG_PutString("BRAKES ON. \n");
  59              		.loc 1 73 0
  60 001c 2348     		ldr	r0, .L13+12
  61 001e FFF7FEFF 		bl	UART_LOG_PutString
  62              	.LVL4:
  74:source\asw/swc_brakelight.c ****         LED_Set(LED_RED, LED_ON);
  63              		.loc 1 74 0
  64 0022 2146     		mov	r1, r4
  65 0024 0020     		movs	r0, #0
  66 0026 FFF7FEFF 		bl	LED_Set
  67              	.LVL5:
  68 002a 09E0     		b	.L4
  69              	.L3:
  75:source\asw/swc_brakelight.c ****     }
  76:source\asw/swc_brakelight.c ****     else
  77:source\asw/swc_brakelight.c ****     {
  78:source\asw/swc_brakelight.c ****         brakelight_st.brakeLight = FALSE;
  70              		.loc 1 78 0
  71 002c 0024     		movs	r4, #0
  72 002e 1E4B     		ldr	r3, .L13+8
  73 0030 1C70     		strb	r4, [r3]
  79:source\asw/swc_brakelight.c ****         UART_LOG_PutString("BRAKES OFF. \n");
  74              		.loc 1 79 0
  75 0032 1F48     		ldr	r0, .L13+16
  76 0034 FFF7FEFF 		bl	UART_LOG_PutString
  77              	.LVL6:
  80:source\asw/swc_brakelight.c ****         LED_Set(LED_RED, LED_OFF);
  78              		.loc 1 80 0
  79 0038 2146     		mov	r1, r4
  80 003a 2046     		mov	r0, r4
  81 003c FFF7FEFF 		bl	LED_Set
  82              	.LVL7:
  83              	.L4:
  84 0040 194B     		ldr	r3, .L13+8
  85 0042 1978     		ldrb	r1, [r3]	@ zero_extendqisi2
  86              	.LVL8:
  87              	.LBB9:
  88              	.LBB10:
  89              		.file 2 ".\\source\\rte/sc_brakelight.h"
   1:.\source\rte/sc_brakelight.h **** 
   2:.\source\rte/sc_brakelight.h **** 
ARM GAS  C:\Users\JASON\AppData\Local\Temp\ccTyvOII.s 			page 4


   3:.\source\rte/sc_brakelight.h **** /**
   4:.\source\rte/sc_brakelight.h **** *  file    SC_BRAKELIGHT_signal.h
   5:.\source\rte/sc_brakelight.h **** *
   6:.\source\rte/sc_brakelight.h **** *  brief   signal base class for signal sc_brakelight
   7:.\source\rte/sc_brakelight.h **** *
   8:.\source\rte/sc_brakelight.h **** *  author  Autogenerated, Peter Fromm       <peter.fromm@h-da.de>
   9:.\source\rte/sc_brakelight.h **** *
  10:.\source\rte/sc_brakelight.h **** *
  11:.\source\rte/sc_brakelight.h **** */
  12:.\source\rte/sc_brakelight.h **** 
  13:.\source\rte/sc_brakelight.h **** /*
  14:.\source\rte/sc_brakelight.h **** * description: Signalclass representing the brake light.
  15:.\source\rte/sc_brakelight.h **** * name: sc_brakeLight
  16:.\source\rte/sc_brakelight.h **** * shortname: brakeLight
  17:.\source\rte/sc_brakelight.h **** */
  18:.\source\rte/sc_brakelight.h **** 
  19:.\source\rte/sc_brakelight.h **** #ifndef SC_BRAKELIGHT_SIGNAL_H_INCLUDED
  20:.\source\rte/sc_brakelight.h **** #define SC_BRAKELIGHT_SIGNAL_H_INCLUDED
  21:.\source\rte/sc_brakelight.h **** 
  22:.\source\rte/sc_brakelight.h **** /*================================================[ public includes  ]=============================
  23:.\source\rte/sc_brakelight.h **** #include "global.h"
  24:.\source\rte/sc_brakelight.h **** #include "project.h"
  25:.\source\rte/sc_brakelight.h **** #include "rte.h"
  26:.\source\rte/sc_brakelight.h **** #include "rte_types.h"
  27:.\source\rte/sc_brakelight.h **** 
  28:.\source\rte/sc_brakelight.h **** #include "sc_brakelight_type.h"
  29:.\source\rte/sc_brakelight.h **** 
  30:.\source\rte/sc_brakelight.h **** 
  31:.\source\rte/sc_brakelight.h **** /**************************************************************************************************
  32:.\source\rte/sc_brakelight.h **** /* The driver API block																						*/
  33:.\source\rte/sc_brakelight.h **** /**************************************************************************************************
  34:.\source\rte/sc_brakelight.h ****                                                                                                    
  35:.\source\rte/sc_brakelight.h **** /**
  36:.\source\rte/sc_brakelight.h ****  *  Definition of function types for driver interfaces.
  37:.\source\rte/sc_brakelight.h ****  *  I-Port
  38:.\source\rte/sc_brakelight.h ****  */
  39:.\source\rte/sc_brakelight.h **** typedef RC_t (*SC_BRAKELIGHT_driverIn_t)(SC_BRAKELIGHT_data_t * const);
  40:.\source\rte/sc_brakelight.h **** 
  41:.\source\rte/sc_brakelight.h **** /**
  42:.\source\rte/sc_brakelight.h ****  *  Definition of function types for driver interfaces.
  43:.\source\rte/sc_brakelight.h ****  *  O-Port
  44:.\source\rte/sc_brakelight.h ****  */
  45:.\source\rte/sc_brakelight.h **** typedef RC_t (*SC_BRAKELIGHT_driverOut_t)( const SC_BRAKELIGHT_data_t * const);
  46:.\source\rte/sc_brakelight.h **** 
  47:.\source\rte/sc_brakelight.h **** 
  48:.\source\rte/sc_brakelight.h **** /**************************************************************************************************
  49:.\source\rte/sc_brakelight.h **** /* The signal configuration API block																				*/
  50:.\source\rte/sc_brakelight.h **** /**************************************************************************************************
  51:.\source\rte/sc_brakelight.h **** 
  52:.\source\rte/sc_brakelight.h **** /**
  53:.\source\rte/sc_brakelight.h ****  * Instances of the struct SC_BRAKELIGHT_cfg_t represent the signal object configuration.
  54:.\source\rte/sc_brakelight.h ****  */
  55:.\source\rte/sc_brakelight.h **** struct SC_BRAKELIGHT_cfg_s
  56:.\source\rte/sc_brakelight.h **** {
  57:.\source\rte/sc_brakelight.h ****     /**
  58:.\source\rte/sc_brakelight.h ****      * Function pointer to the input driver
  59:.\source\rte/sc_brakelight.h ****      */
ARM GAS  C:\Users\JASON\AppData\Local\Temp\ccTyvOII.s 			page 5


  60:.\source\rte/sc_brakelight.h ****     SC_BRAKELIGHT_driverIn_t const inDriver;
  61:.\source\rte/sc_brakelight.h **** 
  62:.\source\rte/sc_brakelight.h ****     /**
  63:.\source\rte/sc_brakelight.h ****      * Function pointer to the output driver table
  64:.\source\rte/sc_brakelight.h ****      */
  65:.\source\rte/sc_brakelight.h ****    SC_BRAKELIGHT_driverOut_t const outDriver;
  66:.\source\rte/sc_brakelight.h ****    
  67:.\source\rte/sc_brakelight.h ****     /**
  68:.\source\rte/sc_brakelight.h ****      * Event onUpdate
  69:.\source\rte/sc_brakelight.h ****      */
  70:.\source\rte/sc_brakelight.h ****     EventMaskType const evOnUpdate;
  71:.\source\rte/sc_brakelight.h ****     
  72:.\source\rte/sc_brakelight.h ****     
  73:.\source\rte/sc_brakelight.h ****     /**
  74:.\source\rte/sc_brakelight.h ****      * Event onError
  75:.\source\rte/sc_brakelight.h ****      */
  76:.\source\rte/sc_brakelight.h ****     EventMaskType const evOnError;
  77:.\source\rte/sc_brakelight.h ****     
  78:.\source\rte/sc_brakelight.h ****     /**
  79:.\source\rte/sc_brakelight.h ****      * Task Count onUpdate
  80:.\source\rte/sc_brakelight.h ****      */
  81:.\source\rte/sc_brakelight.h ****     size_t const onUpdateTaskCount;
  82:.\source\rte/sc_brakelight.h **** 
  83:.\source\rte/sc_brakelight.h ****     /**
  84:.\source\rte/sc_brakelight.h ****      * Task List onUpdate
  85:.\source\rte/sc_brakelight.h ****      */
  86:.\source\rte/sc_brakelight.h ****     TaskTypeArray* const onUpdateTasks;
  87:.\source\rte/sc_brakelight.h ****     
  88:.\source\rte/sc_brakelight.h ****     /**
  89:.\source\rte/sc_brakelight.h ****      * Task Count onError
  90:.\source\rte/sc_brakelight.h ****      */
  91:.\source\rte/sc_brakelight.h ****     size_t const onErrorTaskCount;
  92:.\source\rte/sc_brakelight.h **** 
  93:.\source\rte/sc_brakelight.h ****     /**
  94:.\source\rte/sc_brakelight.h ****      * Task List onError
  95:.\source\rte/sc_brakelight.h ****      */
  96:.\source\rte/sc_brakelight.h ****     TaskTypeArray* const onErrorTasks;
  97:.\source\rte/sc_brakelight.h **** 	
  98:.\source\rte/sc_brakelight.h **** 	
  99:.\source\rte/sc_brakelight.h **** 	/**
 100:.\source\rte/sc_brakelight.h **** 	 * Ressourse is active? We need an additional boolean as a ressource value 0 is valid.
 101:.\source\rte/sc_brakelight.h **** 	 */
 102:.\source\rte/sc_brakelight.h **** 	 boolean_t const resourceActive;
 103:.\source\rte/sc_brakelight.h **** 	 
 104:.\source\rte/sc_brakelight.h **** 	/**
 105:.\source\rte/sc_brakelight.h **** 	 * Ressourse 
 106:.\source\rte/sc_brakelight.h **** 	 */
 107:.\source\rte/sc_brakelight.h **** 	 ResourceType const resource;
 108:.\source\rte/sc_brakelight.h **** 
 109:.\source\rte/sc_brakelight.h **** };                                                                                                 
 110:.\source\rte/sc_brakelight.h **** typedef const struct SC_BRAKELIGHT_cfg_s SC_BRAKELIGHT_cfg_t;
 111:.\source\rte/sc_brakelight.h ****                               
 112:.\source\rte/sc_brakelight.h **** /**************************************************************************************************
 113:.\source\rte/sc_brakelight.h **** /* The data interface block																							*/
 114:.\source\rte/sc_brakelight.h **** /**************************************************************************************************
 115:.\source\rte/sc_brakelight.h **** 
 116:.\source\rte/sc_brakelight.h ****                                                                                                    
ARM GAS  C:\Users\JASON\AppData\Local\Temp\ccTyvOII.s 			page 6


 117:.\source\rte/sc_brakelight.h **** 							  
 118:.\source\rte/sc_brakelight.h **** /**
 119:.\source\rte/sc_brakelight.h ****  * Instances of the struct SC_BRAKELIGHT_t represent the signal objects.
 120:.\source\rte/sc_brakelight.h ****  * A signal object contains the current application value 'value' as well as relevant meta data.
 121:.\source\rte/sc_brakelight.h ****  */
 122:.\source\rte/sc_brakelight.h **** struct SC_BRAKELIGHT_s
 123:.\source\rte/sc_brakelight.h **** {                                                                                                  
 124:.\source\rte/sc_brakelight.h **** 
 125:.\source\rte/sc_brakelight.h **** 	/**
 126:.\source\rte/sc_brakelight.h **** 	 * Data buffer for the application value
 127:.\source\rte/sc_brakelight.h **** 	 */
 128:.\source\rte/sc_brakelight.h ****     SC_BRAKELIGHT_data_t value;
 129:.\source\rte/sc_brakelight.h **** 
 130:.\source\rte/sc_brakelight.h ****     /**
 131:.\source\rte/sc_brakelight.h ****      * Current signal status
 132:.\source\rte/sc_brakelight.h ****      */
 133:.\source\rte/sc_brakelight.h ****     RTE_signalStatus_t status;
 134:.\source\rte/sc_brakelight.h **** 
 135:.\source\rte/sc_brakelight.h ****     /**
 136:.\source\rte/sc_brakelight.h ****      * Current age of the signal (in calling cycles)
 137:.\source\rte/sc_brakelight.h ****      */
 138:.\source\rte/sc_brakelight.h ****     uint32_t age;
 139:.\source\rte/sc_brakelight.h **** 
 140:.\source\rte/sc_brakelight.h ****     /**
 141:.\source\rte/sc_brakelight.h ****      * Pointer to the signal configuration
 142:.\source\rte/sc_brakelight.h ****      */
 143:.\source\rte/sc_brakelight.h **** 	const SC_BRAKELIGHT_cfg_t * const    pSigCfg;
 144:.\source\rte/sc_brakelight.h **** 
 145:.\source\rte/sc_brakelight.h **** };                                                                                                 
 146:.\source\rte/sc_brakelight.h **** typedef struct SC_BRAKELIGHT_s SC_BRAKELIGHT_t;
 147:.\source\rte/sc_brakelight.h **** 
 148:.\source\rte/sc_brakelight.h **** /**************************************************************************************************
 149:.\source\rte/sc_brakelight.h **** /* Signal initialisation   																							*/
 150:.\source\rte/sc_brakelight.h **** /**************************************************************************************************
 151:.\source\rte/sc_brakelight.h **** 
 152:.\source\rte/sc_brakelight.h **** /**
 153:.\source\rte/sc_brakelight.h ****  * Initializes a signal instance with a passed init value.
 154:.\source\rte/sc_brakelight.h ****  * Depending on the configured conversion or scaling function the raw_value will be calculated.
 155:.\source\rte/sc_brakelight.h ****  * Signal status will change from RTE_SIGNALSTATUS_STARTUP to RTE_SIGNALSTATUS_INITIALIZED.
 156:.\source\rte/sc_brakelight.h ****  *
 157:.\source\rte/sc_brakelight.h ****  * @param  SC_BRAKELIGHT_t * const signal: Pointer to the signal object which will be initialised
 158:.\source\rte/sc_brakelight.h ****  * @param const sc_brakelight_data_t * const value: Pointer to initial value of the application dat
 159:.\source\rte/sc_brakelight.h ****  * @return RC_t: standard return code, currently only RC_SUCCESS
 160:.\source\rte/sc_brakelight.h ****  *
 161:.\source\rte/sc_brakelight.h ****  **/
 162:.\source\rte/sc_brakelight.h **** inline RC_t RTE_SC_BRAKELIGHT_init( SC_BRAKELIGHT_t * const signal, const SC_BRAKELIGHT_data_t * co
 163:.\source\rte/sc_brakelight.h **** {                                                                                                  
 164:.\source\rte/sc_brakelight.h **** 
 165:.\source\rte/sc_brakelight.h ****    RC_t ret = RC_SUCCESS;
 166:.\source\rte/sc_brakelight.h **** 
 167:.\source\rte/sc_brakelight.h ****    //Set value and raw value
 168:.\source\rte/sc_brakelight.h ****    signal->value  = *value;
 169:.\source\rte/sc_brakelight.h ****    signal->age    = 0;
 170:.\source\rte/sc_brakelight.h ****    signal->status = RTE_SIGNALSTATUS_INITIALIZED;
 171:.\source\rte/sc_brakelight.h **** 
 172:.\source\rte/sc_brakelight.h ****    return ret;
 173:.\source\rte/sc_brakelight.h **** }
ARM GAS  C:\Users\JASON\AppData\Local\Temp\ccTyvOII.s 			page 7


 174:.\source\rte/sc_brakelight.h **** 
 175:.\source\rte/sc_brakelight.h **** /**************************************************************************************************
 176:.\source\rte/sc_brakelight.h **** /* Status and timeout control																						*/
 177:.\source\rte/sc_brakelight.h **** /**************************************************************************************************
 178:.\source\rte/sc_brakelight.h **** 
 179:.\source\rte/sc_brakelight.h **** /**
 180:.\source\rte/sc_brakelight.h ****  *  Returns the current signal status of the passed signal instance.
 181:.\source\rte/sc_brakelight.h ****  *
 182:.\source\rte/sc_brakelight.h ****  * @param  SC_BRAKELIGHT_t * const signal: Pointer to the signal object
 183:.\source\rte/sc_brakelight.h ****  * @return  sig_status_t: The current signal status
 184:.\source\rte/sc_brakelight.h ****  *
 185:.\source\rte/sc_brakelight.h ****  **/
 186:.\source\rte/sc_brakelight.h **** inline RTE_signalStatus_t RTE_SC_BRAKELIGHT_getStatus( const SC_BRAKELIGHT_t * const signal )
 187:.\source\rte/sc_brakelight.h **** {
 188:.\source\rte/sc_brakelight.h ****    return signal->status;
 189:.\source\rte/sc_brakelight.h **** }
 190:.\source\rte/sc_brakelight.h **** 
 191:.\source\rte/sc_brakelight.h **** 
 192:.\source\rte/sc_brakelight.h **** /**
 193:.\source\rte/sc_brakelight.h ****  *  Sets a new signal status of the passed signal instance by passing the new status.
 194:.\source\rte/sc_brakelight.h ****  *
 195:.\source\rte/sc_brakelight.h ****  * @param  SC_BRAKELIGHT_t * const signal: Pointer to the signal object
 196:.\source\rte/sc_brakelight.h ****  * @param  const sig_status_t status: New signal status
 197:.\source\rte/sc_brakelight.h ****  * @return RC_t: standard return code, currently only RC_SUCCESS
 198:.\source\rte/sc_brakelight.h ****  *
 199:.\source\rte/sc_brakelight.h ****  */
 200:.\source\rte/sc_brakelight.h **** inline RC_t RTE_SC_BRAKELIGHT_setStatus( SC_BRAKELIGHT_t * const signal, const RTE_signalStatus_t s
 201:.\source\rte/sc_brakelight.h **** {
 202:.\source\rte/sc_brakelight.h ****    signal->status = status;
 203:.\source\rte/sc_brakelight.h ****    size_t taskNum=0;
 204:.\source\rte/sc_brakelight.h ****    
 205:.\source\rte/sc_brakelight.h ****    //Fire error events in case of invalid state
 206:.\source\rte/sc_brakelight.h ****    if (signal->status == RTE_SIGNALSTATUS_INVALID)
 207:.\source\rte/sc_brakelight.h ****    {
 208:.\source\rte/sc_brakelight.h **** 	    //Pointer to the Taskarray, containing the tasks receiving the onUpdate events
 209:.\source\rte/sc_brakelight.h **** 		TaskTypeArray* pTaskArray = signal->pSigCfg->onErrorTasks;
 210:.\source\rte/sc_brakelight.h **** 
 211:.\source\rte/sc_brakelight.h **** 		if (NULL!=signal->pSigCfg->evOnError && NULL != pTaskArray){
 212:.\source\rte/sc_brakelight.h **** 			for( taskNum=0 ; taskNum < signal->pSigCfg->onErrorTaskCount ;taskNum++){
 213:.\source\rte/sc_brakelight.h **** 				TaskType task = (*pTaskArray)[taskNum];
 214:.\source\rte/sc_brakelight.h **** 				SetEvent( task, signal->pSigCfg->evOnError);
 215:.\source\rte/sc_brakelight.h **** 			}
 216:.\source\rte/sc_brakelight.h **** 		}
 217:.\source\rte/sc_brakelight.h ****    }
 218:.\source\rte/sc_brakelight.h ****    
 219:.\source\rte/sc_brakelight.h ****    return RC_SUCCESS;
 220:.\source\rte/sc_brakelight.h **** }
 221:.\source\rte/sc_brakelight.h **** 
 222:.\source\rte/sc_brakelight.h **** 
 223:.\source\rte/sc_brakelight.h **** /**
 224:.\source\rte/sc_brakelight.h ****  * Returns the count of refreshing trials (refresh, set or set_raw) that failed.
 225:.\source\rte/sc_brakelight.h ****  * Prerquisite: The signal is refreshed cyclically
 226:.\source\rte/sc_brakelight.h ****  *
 227:.\source\rte/sc_brakelight.h ****  * @param  SC_BRAKELIGHT_t * const signal: Pointer to the signal object
 228:.\source\rte/sc_brakelight.h ****  * @return uint32_t: Number of cycles since the signal has been updated for the last time
 229:.\source\rte/sc_brakelight.h ****  */
 230:.\source\rte/sc_brakelight.h **** inline uint32_t RTE_SC_BRAKELIGHT_getAge( const SC_BRAKELIGHT_t * const signal )
ARM GAS  C:\Users\JASON\AppData\Local\Temp\ccTyvOII.s 			page 8


 231:.\source\rte/sc_brakelight.h **** {
 232:.\source\rte/sc_brakelight.h ****    return signal->age;
 233:.\source\rte/sc_brakelight.h **** }
 234:.\source\rte/sc_brakelight.h **** 
 235:.\source\rte/sc_brakelight.h **** /**
 236:.\source\rte/sc_brakelight.h ****  * Should be called by application or driver if no new value can be provided.
 237:.\source\rte/sc_brakelight.h ****  * @param  SC_BRAKELIGHT_t * const signal: Pointer to the signal object
 238:.\source\rte/sc_brakelight.h ****  * @param uint32_t increment: incrementvalue, typically in [ms]
 239:.\source\rte/sc_brakelight.h ****  * @return void
 240:.\source\rte/sc_brakelight.h ****  */
 241:.\source\rte/sc_brakelight.h **** inline void RTE_SC_BRAKELIGHT_incAge(  SC_BRAKELIGHT_t * const signal , uint32_t increment)
 242:.\source\rte/sc_brakelight.h **** {
 243:.\source\rte/sc_brakelight.h **** 	   //Hack....
 244:.\source\rte/sc_brakelight.h **** 	   if ( 0xFFFF0000 > (signal->age + increment) )
 245:.\source\rte/sc_brakelight.h **** 	   {
 246:.\source\rte/sc_brakelight.h **** 	      signal->age += increment;
 247:.\source\rte/sc_brakelight.h **** 	   }
 248:.\source\rte/sc_brakelight.h **** }
 249:.\source\rte/sc_brakelight.h **** 
 250:.\source\rte/sc_brakelight.h **** 
 251:.\source\rte/sc_brakelight.h **** /**************************************************************************************************
 252:.\source\rte/sc_brakelight.h **** /* Application Data read/write Interface																			*/
 253:.\source\rte/sc_brakelight.h **** /**************************************************************************************************
 254:.\source\rte/sc_brakelight.h **** 
 255:.\source\rte/sc_brakelight.h **** /**
 256:.\source\rte/sc_brakelight.h ****  * Returns the current application value of the passed signal instance.
 257:.\source\rte/sc_brakelight.h ****  *
 258:.\source\rte/sc_brakelight.h ****  * @param  SC_BRAKELIGHT_t * const signal: Pointer to the signal object
 259:.\source\rte/sc_brakelight.h ****  * @return sc_brakelight_data_t: current value of the application data buffer
 260:.\source\rte/sc_brakelight.h ****  *
 261:.\source\rte/sc_brakelight.h ****  **/
 262:.\source\rte/sc_brakelight.h **** inline SC_BRAKELIGHT_data_t RTE_SC_BRAKELIGHT_get( const SC_BRAKELIGHT_t * const signal )
 263:.\source\rte/sc_brakelight.h **** {               
 264:.\source\rte/sc_brakelight.h ****    //Todo: Critical region cannot be protected using return values																						
 265:.\source\rte/sc_brakelight.h ****    return signal->value;                                                                           
 266:.\source\rte/sc_brakelight.h **** }                                                                                                  
 267:.\source\rte/sc_brakelight.h ****                                                                                                    
 268:.\source\rte/sc_brakelight.h **** /**
 269:.\source\rte/sc_brakelight.h ****  * Returns the current application value of the passed signal instance threadsafe.
 270:.\source\rte/sc_brakelight.h ****  *
 271:.\source\rte/sc_brakelight.h ****  * @param  SC_BRAKELIGHT_t * const signal: Pointer to the signal object
 272:.\source\rte/sc_brakelight.h ****  * @param  SC_BRAKELIGHT_data_t* data: Pointer to the return data Pointer to the signal object
 273:.\source\rte/sc_brakelight.h ****  * @return RC_SUCCESS
 274:.\source\rte/sc_brakelight.h ****  *
 275:.\source\rte/sc_brakelight.h ****  **/
 276:.\source\rte/sc_brakelight.h **** inline RC_t RTE_SC_BRAKELIGHT_getThreadSafe( const SC_BRAKELIGHT_t * const signal, SC_BRAKELIGHT_da
 277:.\source\rte/sc_brakelight.h **** {    
 278:.\source\rte/sc_brakelight.h ****    if (TRUE == signal->pSigCfg->resourceActive) GetResource(signal->pSigCfg->resource);
 279:.\source\rte/sc_brakelight.h ****    *data = signal->value;
 280:.\source\rte/sc_brakelight.h ****    if (TRUE == signal->pSigCfg->resourceActive) ReleaseResource(signal->pSigCfg->resource);        
 281:.\source\rte/sc_brakelight.h **** 
 282:.\source\rte/sc_brakelight.h ****    return RC_SUCCESS;                                                                   
 283:.\source\rte/sc_brakelight.h ****    
 284:.\source\rte/sc_brakelight.h **** }                                                                                                  
 285:.\source\rte/sc_brakelight.h ****                                                                                                    
 286:.\source\rte/sc_brakelight.h **** /**
 287:.\source\rte/sc_brakelight.h ****  * Sets a new application value to the passed signal instance by passing the new value.
ARM GAS  C:\Users\JASON\AppData\Local\Temp\ccTyvOII.s 			page 9


 288:.\source\rte/sc_brakelight.h ****  * The corresponding driver raw value will be calculated immediately by using the default conversio
 289:.\source\rte/sc_brakelight.h ****  * signal specific scaling function.
 290:.\source\rte/sc_brakelight.h ****  * The signal age will be set to 0 and the new status will be 'RTE_SIGNALSTATUS_VALID'.
 291:.\source\rte/sc_brakelight.h ****  *
 292:.\source\rte/sc_brakelight.h ****  * @param  SC_BRAKELIGHT_t * const signal: Pointer to the signal object
 293:.\source\rte/sc_brakelight.h ****  * @param  sc_brakelight_data_t const value: value for the application data buffer
 294:.\source\rte/sc_brakelight.h ****  * @return RC_t: standard return code, currently only RC_SUCCESS
 295:.\source\rte/sc_brakelight.h ****  *
 296:.\source\rte/sc_brakelight.h ****  **/
 297:.\source\rte/sc_brakelight.h **** inline RC_t RTE_SC_BRAKELIGHT_set(SC_BRAKELIGHT_t * const signal, const SC_BRAKELIGHT_data_t value 
 298:.\source\rte/sc_brakelight.h **** {
 299:.\source\rte/sc_brakelight.h **** 
 300:.\source\rte/sc_brakelight.h ****    RC_t ret = RC_SUCCESS;
 301:.\source\rte/sc_brakelight.h ****    size_t taskNum=0;
 302:.\source\rte/sc_brakelight.h **** 
 303:.\source\rte/sc_brakelight.h **** 
 304:.\source\rte/sc_brakelight.h ****    if (TRUE == signal->pSigCfg->resourceActive) GetResource(signal->pSigCfg->resource);
  90              		.loc 2 304 0
  91 0044 1B4B     		ldr	r3, .L13+20
  92 0046 9A68     		ldr	r2, [r3, #8]
 305:.\source\rte/sc_brakelight.h ****    signal->value  = value;
  93              		.loc 2 305 0
  94 0048 1970     		strb	r1, [r3]
 306:.\source\rte/sc_brakelight.h ****    signal->age    = 0;
  95              		.loc 2 306 0
  96 004a 0021     		movs	r1, #0
  97 004c 5960     		str	r1, [r3, #4]
 307:.\source\rte/sc_brakelight.h ****    signal->status = RTE_SIGNALSTATUS_VALID;
  98              		.loc 2 307 0
  99 004e 0221     		movs	r1, #2
 100 0050 5970     		strb	r1, [r3, #1]
 308:.\source\rte/sc_brakelight.h ****    if (TRUE == signal->pSigCfg->resourceActive) ReleaseResource(signal->pSigCfg->resource);
 309:.\source\rte/sc_brakelight.h **** 
 310:.\source\rte/sc_brakelight.h ****    //Pointer to the Taskarray, containing the tasks receiving the onUpdate events
 311:.\source\rte/sc_brakelight.h ****    TaskTypeArray* pTaskArray = signal->pSigCfg->onUpdateTasks;
 101              		.loc 2 311 0
 102 0052 5569     		ldr	r5, [r2, #20]
 103              	.LVL9:
 312:.\source\rte/sc_brakelight.h **** 
 313:.\source\rte/sc_brakelight.h ****    if (NULL!=signal->pSigCfg->evOnUpdate && NULL != pTaskArray){
 104              		.loc 2 313 0
 105 0054 9368     		ldr	r3, [r2, #8]
 106 0056 73B1     		cbz	r3, .L5
 107 0058 3DB9     		cbnz	r5, .L10
 108 005a 0CE0     		b	.L5
 109              	.LVL10:
 110              	.L7:
 111              	.LBB11:
 314:.\source\rte/sc_brakelight.h ****       for( taskNum=0 ; taskNum < signal->pSigCfg->onUpdateTaskCount ;taskNum++){
 315:.\source\rte/sc_brakelight.h **** 		  
 316:.\source\rte/sc_brakelight.h ****           TaskType task = (*pTaskArray)[taskNum];
 317:.\source\rte/sc_brakelight.h **** 	      SetEvent( task, signal->pSigCfg->evOnUpdate);
 112              		.loc 2 317 0
 113 005c 9968     		ldr	r1, [r3, #8]
 114 005e 55F82400 		ldr	r0, [r5, r4, lsl #2]
 115 0062 FFF7FEFF 		bl	EE_oo_SetEvent
 116              	.LVL11:
ARM GAS  C:\Users\JASON\AppData\Local\Temp\ccTyvOII.s 			page 10


 117              	.LBE11:
 314:.\source\rte/sc_brakelight.h ****       for( taskNum=0 ; taskNum < signal->pSigCfg->onUpdateTaskCount ;taskNum++){
 118              		.loc 2 314 0
 119 0066 0134     		adds	r4, r4, #1
 120              	.LVL12:
 121 0068 00E0     		b	.L6
 122              	.LVL13:
 123              	.L10:
 313:.\source\rte/sc_brakelight.h ****       for( taskNum=0 ; taskNum < signal->pSigCfg->onUpdateTaskCount ;taskNum++){
 124              		.loc 2 313 0
 125 006a 0024     		movs	r4, #0
 126              	.LVL14:
 127              	.L6:
 314:.\source\rte/sc_brakelight.h ****       for( taskNum=0 ; taskNum < signal->pSigCfg->onUpdateTaskCount ;taskNum++){
 128              		.loc 2 314 0
 129 006c 114B     		ldr	r3, .L13+20
 130 006e 9B68     		ldr	r3, [r3, #8]
 131 0070 1A69     		ldr	r2, [r3, #16]
 132 0072 9442     		cmp	r4, r2
 133 0074 F2D3     		bcc	.L7
 134              	.LVL15:
 135              	.L5:
 136              	.LBE10:
 137              	.LBE9:
 138              	.LBB12:
 139              	.LBB13:
 318:.\source\rte/sc_brakelight.h ****       }
 319:.\source\rte/sc_brakelight.h ****    }
 320:.\source\rte/sc_brakelight.h **** 
 321:.\source\rte/sc_brakelight.h ****    return ret;
 322:.\source\rte/sc_brakelight.h **** }                                                                                                  
 323:.\source\rte/sc_brakelight.h ****                                                                                                    
 324:.\source\rte/sc_brakelight.h ****                                                                                                    
 325:.\source\rte/sc_brakelight.h **** /**************************************************************************************************
 326:.\source\rte/sc_brakelight.h **** /* Call functions to the connected drivers																			*/
 327:.\source\rte/sc_brakelight.h **** /**************************************************************************************************
 328:.\source\rte/sc_brakelight.h **** 
 329:.\source\rte/sc_brakelight.h ****                                                                                                    
 330:.\source\rte/sc_brakelight.h **** /**
 331:.\source\rte/sc_brakelight.h ****  *  Calls the connected driver interface to get a new value.
 332:.\source\rte/sc_brakelight.h ****  *
 333:.\source\rte/sc_brakelight.h ****  * @param SC_BRAKELIGHT_t * const signal: Pointer to the signal object
 334:.\source\rte/sc_brakelight.h ****  * @return  RC_t: Return value of the driver call
 335:.\source\rte/sc_brakelight.h ****  *
 336:.\source\rte/sc_brakelight.h ****  */
 337:.\source\rte/sc_brakelight.h **** inline RC_t RTE_SC_BRAKELIGHT_pullPort( SC_BRAKELIGHT_t * const signal )
 338:.\source\rte/sc_brakelight.h **** {                                                                                                  
 339:.\source\rte/sc_brakelight.h ****    RC_t ret = RC_SUCCESS;
 340:.\source\rte/sc_brakelight.h **** 
 341:.\source\rte/sc_brakelight.h ****                                                                                                    
 342:.\source\rte/sc_brakelight.h ****    if ( NULL != signal->pSigCfg->inDriver )
 343:.\source\rte/sc_brakelight.h ****    {
 344:.\source\rte/sc_brakelight.h **** 	  SC_BRAKELIGHT_data_t value = signal->value;
 345:.\source\rte/sc_brakelight.h ****       ret = signal->pSigCfg->inDriver(&value);
 346:.\source\rte/sc_brakelight.h ****                                                                                                    
 347:.\source\rte/sc_brakelight.h ****       if ( ret == RC_SUCCESS )                                                                     
 348:.\source\rte/sc_brakelight.h ****       {
ARM GAS  C:\Users\JASON\AppData\Local\Temp\ccTyvOII.s 			page 11


 349:.\source\rte/sc_brakelight.h ****     	  //Critical Section
 350:.\source\rte/sc_brakelight.h ****     	  RTE_SC_BRAKELIGHT_set(signal, value);
 351:.\source\rte/sc_brakelight.h ****       }
 352:.\source\rte/sc_brakelight.h ****       else
 353:.\source\rte/sc_brakelight.h ****       {
 354:.\source\rte/sc_brakelight.h **** 		  //Signal is invalid. Error event (if present) will be fired
 355:.\source\rte/sc_brakelight.h **** 		  RTE_SC_BRAKELIGHT_setStatus(signal, RTE_SIGNALSTATUS_INVALID);
 356:.\source\rte/sc_brakelight.h ****       }
 357:.\source\rte/sc_brakelight.h **** 
 358:.\source\rte/sc_brakelight.h ****    }                                                                                               
 359:.\source\rte/sc_brakelight.h ****                                                                                                    
 360:.\source\rte/sc_brakelight.h ****    return ret;                                                                                     
 361:.\source\rte/sc_brakelight.h **** }                                                                                                  
 362:.\source\rte/sc_brakelight.h ****                                                                                                    
 363:.\source\rte/sc_brakelight.h **** /**
 364:.\source\rte/sc_brakelight.h ****  *  Calls the connected driver interfaces to send a value. Value will not be sent if it is INVALID.
 365:.\source\rte/sc_brakelight.h ****  *
 366:.\source\rte/sc_brakelight.h ****  * @param SC_BRAKELIGHT_t * const signal: Pointer to the signal object
 367:.\source\rte/sc_brakelight.h ****  * @return  RC_t: Return value of the driver call
 368:.\source\rte/sc_brakelight.h ****  *
 369:.\source\rte/sc_brakelight.h ****  **/
 370:.\source\rte/sc_brakelight.h **** inline RC_t RTE_SC_BRAKELIGHT_pushPort( const SC_BRAKELIGHT_t * const signal )
 371:.\source\rte/sc_brakelight.h **** {                                                                                                  
 372:.\source\rte/sc_brakelight.h ****    RC_t ret = RC_ERROR;
 373:.\source\rte/sc_brakelight.h **** 
 374:.\source\rte/sc_brakelight.h ****    if (RTE_SIGNALSTATUS_VALID == signal->status)
 140              		.loc 2 374 0
 141 0076 0F4B     		ldr	r3, .L13+20
 142 0078 5B78     		ldrb	r3, [r3, #1]	@ zero_extendqisi2
 143 007a 022B     		cmp	r3, #2
 144 007c 04D1     		bne	.L11
 375:.\source\rte/sc_brakelight.h ****    {
 376:.\source\rte/sc_brakelight.h **** 	   ret = signal->pSigCfg->outDriver(&(signal->value));
 145              		.loc 2 376 0
 146 007e 0D48     		ldr	r0, .L13+20
 147 0080 8368     		ldr	r3, [r0, #8]
 148 0082 5B68     		ldr	r3, [r3, #4]
 149 0084 9847     		blx	r3
 150              	.LVL16:
 151 0086 01E0     		b	.L8
 152              	.LVL17:
 153              	.L11:
 372:.\source\rte/sc_brakelight.h **** 
 154              		.loc 2 372 0
 155 0088 4FF0FF30 		mov	r0, #-1
 156              	.LVL18:
 157              	.L8:
 158              	.LBE13:
 159              	.LBE12:
  81:source\asw/swc_brakelight.c ****     }
  82:source\asw/swc_brakelight.c ****     
  83:source\asw/swc_brakelight.c ****     /**
  84:source\asw/swc_brakelight.c ****      * Brake status updated.
  85:source\asw/swc_brakelight.c ****      **/
  86:source\asw/swc_brakelight.c ****     RTE_SC_BRAKELIGHT_set(&SO_BRAKELIGHT_signal,brakelight_st);
  87:source\asw/swc_brakelight.c ****     
  88:source\asw/swc_brakelight.c ****     /**
ARM GAS  C:\Users\JASON\AppData\Local\Temp\ccTyvOII.s 			page 12


  89:source\asw/swc_brakelight.c ****      * Brake status sent to the hardware.
  90:source\asw/swc_brakelight.c ****      **/
  91:source\asw/swc_brakelight.c ****     res = RTE_SC_BRAKELIGHT_pushPort(&SO_BRAKELIGHT_signal);
  92:source\asw/swc_brakelight.c ****     /**
  93:source\asw/swc_brakelight.c ****      * Error Handling.
  94:source\asw/swc_brakelight.c ****      **/
  95:source\asw/swc_brakelight.c ****     if(res != RC_SUCCESS)
 160              		.loc 1 95 0
 161 008c 30B1     		cbz	r0, .L1
  96:source\asw/swc_brakelight.c ****     {
  97:source\asw/swc_brakelight.c ****         UART_LOG_PutString("Brake Status was not written into hardware. \n");
 162              		.loc 1 97 0
 163 008e 0A48     		ldr	r0, .L13+24
 164 0090 FFF7FEFF 		bl	UART_LOG_PutString
 165              	.LVL19:
  98:source\asw/swc_brakelight.c ****         LED_Set(LED_YELLOW, LED_ON);
 166              		.loc 1 98 0
 167 0094 0121     		movs	r1, #1
 168 0096 0846     		mov	r0, r1
 169 0098 FFF7FEFF 		bl	LED_Set
 170              	.LVL20:
 171              	.L1:
 172 009c 38BD     		pop	{r3, r4, r5, pc}
 173              	.L14:
 174 009e 00BF     		.align	2
 175              	.L13:
 176 00a0 00000000 		.word	.LC0
 177 00a4 00000000 		.word	SO_SPEED_signal
 178 00a8 00000000 		.word	.LANCHOR0
 179 00ac 2C000000 		.word	.LC1
 180 00b0 3C000000 		.word	.LC2
 181 00b4 00000000 		.word	SO_BRAKELIGHT_signal
 182 00b8 4C000000 		.word	.LC3
 183              		.cfi_endproc
 184              	.LFE150:
 185              		.size	BRAKELIGHT_setBrakeLight_run, .-BRAKELIGHT_setBrakeLight_run
 186              		.section	.rodata.str1.4,"aMS",%progbits,1
 187              		.align	2
 188              	.LC0:
 189 0000 57617463 		.ascii	"Watchdog Status register update failed. \012\000"
 189      68646F67 
 189      20537461 
 189      74757320 
 189      72656769 
 190 002a 0000     		.space	2
 191              	.LC1:
 192 002c 4252414B 		.ascii	"BRAKES ON. \012\000"
 192      4553204F 
 192      4E2E200A 
 192      00
 193 0039 000000   		.space	3
 194              	.LC2:
 195 003c 4252414B 		.ascii	"BRAKES OFF. \012\000"
 195      4553204F 
 195      46462E20 
 195      0A00
 196 004a 0000     		.space	2
ARM GAS  C:\Users\JASON\AppData\Local\Temp\ccTyvOII.s 			page 13


 197              	.LC3:
 198 004c 4272616B 		.ascii	"Brake Status was not written into hardware. \012\000"
 198      65205374 
 198      61747573 
 198      20776173 
 198      206E6F74 
 199              		.bss
 200              		.align	2
 201              		.set	.LANCHOR0,. + 0
 202              		.type	brakelight_st.6992, %object
 203              		.size	brakelight_st.6992, 1
 204              	brakelight_st.6992:
 205 0000 00       		.space	1
 206              		.text
 207              	.Letext0:
 208              		.file 3 "c:\\program files (x86)\\cypress\\psoc creator\\4.4\\psoc creator\\import\\gnu\\arm\\5.4.
 209              		.file 4 "c:\\program files (x86)\\cypress\\psoc creator\\4.4\\psoc creator\\import\\gnu\\arm\\5.4.
 210              		.file 5 "c:\\program files (x86)\\cypress\\psoc creator\\4.4\\psoc creator\\import\\gnu\\arm\\5.4.
 211              		.file 6 "Generated_Source\\PSoC5/ErikaOS_common_ee_types.inc"
 212              		.file 7 "Generated_Source\\PSoC5/ErikaOS_cortex_mx_ee_cpu.inc"
 213              		.file 8 "Generated_Source\\PSoC5/ErikaOS_ee_oo_common.inc"
 214              		.file 9 ".\\source\\bsw/global.h"
 215              		.file 10 ".\\source\\rte/rte_types.h"
 216              		.file 11 ".\\source\\rte/rte.h"
 217              		.file 12 ".\\source\\bsw\\LabBoard/led.h"
 218              		.file 13 ".\\source\\rte/sc_speed_type.h"
 219              		.file 14 ".\\source\\rte/sc_speed.h"
 220              		.file 15 ".\\source\\rte/sc_brakelight_type.h"
 221              		.file 16 "Generated_Source\\PSoC5/ErikaOS_ee_oo_intfunc.inc"
 222              		.file 17 "Generated_Source\\PSoC5/ErikaOS_cortex_mx_ee_context.inc"
 223              		.file 18 "Generated_Source\\PSoC5/ErikaOS_common_ee_primitives.inc"
 224              		.file 19 "Generated_Source\\PSoC5/core_cm3.h"
 225              		.file 20 ".\\source\\rte/sp_common.h"
 226              		.file 21 "Generated_Source\\PSoC5/ErikaOS_ee_oo_kernel.inc"
 227              		.file 22 ".\\source\\bsw/watchdog.h"
 228              		.file 23 "Generated_Source\\PSoC5/UART_LOG.h"